(dp0
S'3734'
p1
S'Prince of the City (1981)'
p2
sS'3724'
p3
S'Coming Home (1978)'
p4
sS'3725'
p5
S'American Pop (1981)'
p6
sS'3798'
p7
S'What Lies Beneath (2000)'
p8
sS'3726'
p9
S'Assault on Precinct 13 (1976)'
p10
sS'344'
p11
S'Ace Ventura: Pet Detective (1994)'
p12
sS'345'
p13
S'Adventures of Priscilla, Queen of the Desert, The (1994)'
p14
sS'346'
p15
S'Backbeat (1993)'
p16
sS'347'
p17
S'Bitter Moon (1992)'
p18
sS'340'
p19
S'War, The (1994)'
p20
sS'341'
p21
S'Double Happiness (1994)'
p22
sS'342'
p23
S"Muriel's Wedding (1994)"
p24
sS'343'
p25
S'Baby-Sitters Club, The (1995)'
p26
sS'2918'
p27
S"Ferris Bueller's Day Off (1986)"
p28
sS'348'
p29
S'Bullets Over Broadway (1994)'
p30
sS'349'
p31
S'Clear and Present Danger (1994)'
p32
sS'3002'
p33
S'My Best Fiend (Mein liebster Feind) (1999)'
p34
sS'2919'
p35
S'Year of Living Dangerously (1982)'
p36
sS'1653'
p37
S'Gattaca (1997)'
p38
sS'2318'
p39
S'Happiness (1998)'
p40
sS'2319'
p41
S'Reach the Rock (1997)'
p42
sS'2316'
p43
S'Practical Magic (1998)'
p44
sS'2317'
p45
S'Alarmist, The (1997)'
p46
sS'2314'
p47
S'Beloved (1998)'
p48
sS'2315'
p49
S'Bride of Chucky (1998)'
p50
sS'2312'
p51
S'Children of a Lesser God (1986)'
p52
sS'2313'
p53
S'Elephant Man, The (1980)'
p54
sS'2310'
p55
S'Mighty, The (1998)'
p56
sS'2311'
p57
S'2010 (1984)'
p58
sS'298'
p59
S'Pushing Hands (1992)'
p60
sS'299'
p61
S'Priest (1994)'
p62
sS'296'
p63
S'Pulp Fiction (1994)'
p64
sS'297'
p65
S'Panther (1995)'
p66
sS'294'
p67
S'Perez Family, The (1995)'
p68
sS'295'
p69
S"Pyromaniac's Love Story, A (1995)"
p70
sS'292'
p71
S'Outbreak (1995)'
p72
sS'293'
p73
S'Professional, The (a.k.a. Leon: The Professional) (1994)'
p74
sS'290'
p75
S'Once Were Warriors (1994)'
p76
sS'291'
p77
S'Poison Ivy II (1995)'
p78
sS'3773'
p79
S'House Party (1990)'
p80
sS'3772'
p81
S'Hatchet For the Honeymoon (Rosso Segno Della Follia) (1969)'
p82
sS'3771'
p83
S'Golden Voyage of Sinbad, The (1974)'
p84
sS'3770'
p85
S'Dreamscape (1984)'
p86
sS'3777'
p87
S'Nekromantik (1987)'
p88
sS'3776'
p89
S'Melody Time (1948)'
p90
sS'3775'
p91
S'Make Mine Music (1946)'
p92
sS'3774'
p93
S'House Party 2 (1991)'
p94
sS'2147'
p95
S'Clan of the Cave Bear, The (1986)'
p96
sS'3779'
p97
S'Project Moon Base (1953)'
p98
sS'3778'
p99
S'On Our Merry Way (1948)'
p100
sS'270'
p101
S'Love Affair (1994)'
p102
sS'271'
p103
S'Losing Isaiah (1995)'
p104
sS'272'
p105
S'Madness of King George, The (1994)'
p106
sS'273'
p107
S"Mary Shelley's Frankenstein (1994)"
p108
sS'274'
p109
S'Man of the House (1995)'
p110
sS'275'
p111
S'Mixed Nuts (1994)'
p112
sS'276'
p113
S'Milk Money (1994)'
p114
sS'277'
p115
S'Miracle on 34th Street (1994)'
p116
sS'278'
p117
S'Miami Rhapsody (1995)'
p118
sS'279'
p119
S'My Family (1995)'
p120
sS'3211'
p121
S'Cry in the Dark, A (1988)'
p122
sS'3163'
p123
S'Topsy-Turvy (1999)'
p124
sS'1780'
p125
S'Ayn Rand: A Sense of Life (1997)'
p126
sS'2146'
p127
S"St. Elmo's Fire (1985)"
p128
sS'2268'
p129
S'Few Good Men, A (1992)'
p130
sS'2269'
p131
S'Indecent Proposal (1993)'
p132
sS'2262'
p133
S'About Last Night... (1986)'
p134
sS'2263'
p135
S'Seventh Sign, The (1988)'
p136
sS'2260'
p137
S'Wisdom (1986)'
p138
sS'2261'
p139
S'One Crazy Summer (1986)'
p140
sS'2266'
p141
S"Butcher's Wife, The (1991)"
p142
sS'2267'
p143
S'Mortal Thoughts (1991)'
p144
sS'2264'
p145
S"We're No Angels (1989)"
p146
sS'2265'
p147
S'Nothing But Trouble (1991)'
p148
sS'2442'
p149
S'Hilary and Jackie (1998)'
p150
sS'2443'
p151
S'Playing by Heart (1998)'
p152
sS'2440'
p153
S'Another Day in Paradise (1998)'
p154
sS'2441'
p155
S'Hi-Lo Country, The (1998)'
p156
sS'1781'
p157
S'Further Gesture, A (1996)'
p158
sS'2447'
p159
S'Varsity Blues (1999)'
p160
sS'2444'
p161
S'24 7: Twenty Four Seven (1997)'
p162
sS'2445'
p163
S'At First Sight (1999)'
p164
sS'2448'
p165
S'Virus (1999)'
p166
sS'2449'
p167
S'Garbage Pail Kids Movie, The (1987)'
p168
sS'2189'
p169
S'I Married A Strange Person (1997)'
p170
sS'108'
p171
S'Catwalk (1995)'
p172
sS'109'
p173
S'Headless Body in Topless Bar (1995)'
p174
sS'102'
p175
S'Mr. Wrong (1996)'
p176
sS'103'
p177
S'Unforgettable (1996)'
p178
sS'100'
p179
S'City Hall (1996)'
p180
sS'101'
p181
S'Bottle Rocket (1996)'
p182
sS'106'
p183
S'Nobody Loves Me (Keiner liebt mich) (1994)'
p184
sS'107'
p185
S'Muppet Treasure Island (1996)'
p186
sS'104'
p187
S'Happy Gilmore (1996)'
p188
sS'105'
p189
S'Bridges of Madison County, The (1995)'
p190
sS'2046'
p191
S'Flight of the Navigator (1986)'
p192
sS'2047'
p193
S'Gnome-Mobile, The (1967)'
p194
sS'2044'
p195
S'Devil and Max Devlin, The (1981)'
p196
sS'2045'
p197
S'Far Off Place, A (1993)'
p198
sS'2042'
p199
S'D2: The Mighty Ducks (1994)'
p200
sS'2043'
p201
S"Darby O'Gill and the Little People (1959)"
p202
sS'2040'
p203
S'Computer Wore Tennis Shoes, The (1970)'
p204
sS'2041'
p205
S'Condorman (1981)'
p206
sS'3198'
p207
S'Papillon (1973)'
p208
sS'2048'
p209
S'Great Mouse Detective, The (1986)'
p210
sS'2049'
p211
S'Happiest Millionaire, The (1967)'
p212
sS'3150'
p213
S'War Zone, The (1999)'
p214
sS'3155'
p215
S'Anna and the King (1999)'
p216
sS'3154'
p217
S'Blood on the Sun (1945)'
p218
sS'3238'
p219
S'Eye of the Beholder (1999)'
p220
sS'2737'
p221
S'Assassination (1987)'
p222
sS'2038'
p223
S'Cat from Outer Space, The (1978)'
p224
sS'3159'
p225
S'Fantasia 2000 (1999)'
p226
sS'1001'
p227
S"Associate, The (L'Associe)(1982)"
p228
sS'3519'
p229
S'Force 10 from Navarone (1978)'
p230
sS'3158'
p231
S'Emperor and the Assassin, The (Jing ke ci qin wang) (1999)'
p232
sS'3513'
p233
S'Rules of Engagement (2000)'
p234
sS'3512'
p235
S'Return to Me (2000)'
p236
sS'3511'
p237
S'Ready to Rumble (2000)'
p238
sS'3446'
p239
S'Funny Bones (1995)'
p240
sS'1210'
p241
S'Star Wars: Episode VI - Return of the Jedi (1983)'
p242
sS'3239'
p243
S"Isn't She Great? (2000)"
p244
sS'3515'
p245
S'Me Myself I (2000)'
p246
sS'3514'
p247
S"Joe Gould's Secret (2000)"
p248
sS'3465'
p249
S"That's Life! (1986)"
p250
sS'2688'
p251
S"General's Daughter, The (1999)"
p252
sS'2689'
p253
S'Get Bruce (1999)'
p254
sS'2684'
p255
S'Taxman (1999)'
p256
sS'2685'
p257
S'Red Dwarf, The (Le Nain rouge) (1998)'
p258
sS'2686'
p259
S'Red Violin, The (Le Violon rouge) (1998)'
p260
sS'2687'
p261
S'Tarzan (1999)'
p262
sS'2680'
p263
S'Floating (1997)'
p264
sS'1655'
p265
S'Phantoms (1998)'
p266
sS'2682'
p267
S'Limbo (1999)'
p268
sS'2683'
p269
S'Austin Powers: The Spy Who Shagged Me (1999)'
p270
sS'3391'
p271
S"Who's That Girl? (1987)"
p272
sS'3390'
p273
S'Shanghai Surprise (1986)'
p274
sS'3441'
p275
S'Red Dawn (1984)'
p276
sS'3393'
p277
S'Date with an Angel (1987)'
p278
sS'99'
p279
S'Heidi Fleiss: Hollywood Madam (1995)'
p280
sS'98'
p281
S'Shopping (1994)'
p282
sS'3019'
p283
S'Drugstore Cowboy (1989)'
p284
sS'90'
p285
S'Journey of August King, The (1995)'
p286
sS'93'
p287
S'Vampire in Brooklyn (1995)'
p288
sS'92'
p289
S'Mary Reilly (1996)'
p290
sS'95'
p291
S'Broken Arrow (1996)'
p292
sS'94'
p293
S'Beautiful Girls (1996)'
p294
sS'97'
p295
S'Hate (Haine, La) (1995)'
p296
sS'96'
p297
S'In the Bleak Midwinter (1995)'
p298
sS'1623'
p299
S'Wishmaster (1997)'
p300
sS'1622'
p301
S'Kicked in the Head (1997)'
p302
sS'1621'
p303
S'Soul Food (1997)'
p304
sS'1620'
p305
S'Kiss the Girls (1997)'
p306
sS'1627'
p307
S'U Turn (1997)'
p308
sS'1626'
p309
S'Fire Down Below (1997)'
p310
sS'1625'
p311
S'Game, The (1997)'
p312
sS'1624'
p313
S'Thousand Acres, A (1997)'
p314
sS'1999'
p315
S'Exorcist III, The (1990)'
p316
sS'1998'
p317
S'Exorcist II: The Heretic (1977)'
p318
sS'1629'
p319
S'MatchMaker, The (1997)'
p320
sS'1628'
p321
S'Locusts, The (1997)'
p322
sS'3209'
p323
S'Loves of Carmen, The (1948)'
p324
sS'3208'
p325
S'Loaded Weapon 1 (1993)'
p326
sS'3013'
p327
S'Bride of Re-Animator (1990)'
p328
sS'2860'
p329
S'Blue Streak (1999)'
p330
sS'2861'
p331
S'For Love of the Game (1999)'
p332
sS'2862'
p333
S'Caligula (1980)'
p334
sS'2863'
p335
S"Hard Day's Night, A (1964)"
p336
sS'559'
p337
S'Paris, France (1993)'
p338
sS'558'
p339
S'Pagemaster, The (1994)'
p340
sS'2866'
p341
S'Buddy Holly Story, The (1978)'
p342
sS'2867'
p343
S'Fright Night (1985)'
p344
sS'555'
p345
S'True Romance (1993)'
p346
sS'554'
p347
S'Trial by Jury (1994)'
p348
sS'557'
p349
S'Mamma Roma (1962)'
p350
sS'556'
p351
S'War Room, The (1993)'
p352
sS'551'
p353
S'Nightmare Before Christmas, The (1993)'
p354
sS'550'
p355
S'Threesome (1994)'
p356
sS'553'
p357
S'Tombstone (1993)'
p358
sS'552'
p359
S'Three Musketeers, The (1993)'
p360
sS'2744'
p361
S'Otello (1986)'
p362
sS'3538'
p363
S'East is East (1999)'
p364
sS'1439'
p365
S'Meet Wally Sparks (1997)'
p366
sS'1199'
p367
S'Brazil (1985)'
p368
sS'1198'
p369
S'Raiders of the Lost Ark (1981)'
p370
sS'3348'
p371
S'Night Visitor, The (1970)'
p372
sS'3349'
p373
S'Perils of Pauline, The (1947)'
p374
sS'1191'
p375
S'Madonna: Truth or Dare (1991)'
p376
sS'1190'
p377
S'Tie Me Up! Tie Me Down! (1990)'
p378
sS'1193'
p379
S"One Flew Over the Cuckoo's Nest (1975)"
p380
sS'1192'
p381
S'Paris Is Burning (1990)'
p382
sS'3346'
p383
S'Color Me Blood Red (1965)'
p384
sS'1194'
p385
S'Up in Smoke (1978)'
p386
sS'1197'
p387
S'Princess Bride, The (1987)'
p388
sS'1196'
p389
S'Star Wars: Episode V - The Empire Strikes Back (1980)'
p390
sS'1759'
p391
S'Four Days in September (1997)'
p392
sS'1758'
p393
S'Dangerous Beauty (1998)'
p394
sS'1757'
p395
S'Duoluo tianshi (1995)'
p396
sS'1756'
p397
S'Prophecy II, The (1998)'
p398
sS'1755'
p399
S'Shooting Fish (1997)'
p400
sS'1754'
p401
S'Fallen (1998)'
p402
sS'1753'
p403
S'Half Baked (1998)'
p404
sS'1752'
p405
S'Hard Rain (1998)'
p406
sS'1750'
p407
S'Star Kid (1997)'
p408
sS'1177'
p409
S'Enchanted April (1991)'
p410
sS'1176'
p411
S'Double Life of Veronique, The (La Double Vie de V\xe9ronique) (1991)'
p412
sS'1175'
p413
S'Delicatessen (1991)'
p414
sS'1174'
p415
S'Grosse Fatigue (1994)'
p416
sS'1173'
p417
S'Cook the Thief His Wife & Her Lover, The (1989)'
p418
sS'1172'
p419
S'Cinema Paradiso (1988)'
p420
sS'1171'
p421
S'Bob Roberts (1992)'
p422
sS'1170'
p423
S'Best of the Best 3: No Turning Back (1995)'
p424
sS'1179'
p425
S'Grifters, The (1990)'
p426
sS'1178'
p427
S'Paths of Glory (1957)'
p428
sS'511'
p429
S'Program, The (1993)'
p430
sS'2964'
p431
S'Julien Donkey-Boy (1999)'
p432
sS'510'
p433
S'Poetic Justice (1993)'
p434
sS'3440'
p435
S'Teenage Mutant Ninja Turtles III (1993)'
p436
sS'513'
p437
S'Radioland Murders (1994)'
p438
sS'1285'
p439
S'Heathers (1989)'
p440
sS'1284'
p441
S'Big Sleep, The (1946)'
p442
sS'1287'
p443
S'Ben-Hur (1959)'
p444
sS'512'
p445
S"Robert A. Heinlein's The Puppet Masters (1994)"
p446
sS'1281'
p447
S'Great Dictator, The (1940)'
p448
sS'1280'
p449
S'Raise the Red Lantern (1991)'
p450
sS'1283'
p451
S'High Noon (1952)'
p452
sS'1282'
p453
S'Fantasia (1940)'
p454
sS'1003'
p455
S'Extreme Measures (1996)'
p456
sS'879'
p457
S'Relic, The (1997)'
p458
sS'1289'
p459
S'Koyaanisqatsi (1983)'
p460
sS'1288'
p461
S'This Is Spinal Tap (1984)'
p462
sS'514'
p463
S'Ref, The (1994)'
p464
sS'3430'
p465
S'Death Wish (1974)'
p466
sS'1579'
p467
S'For Ever Mozart (1996)'
p468
sS'1578'
p469
S'Innocent Sleep, The (1995)'
p470
sS'688'
p471
S'Operation Dumbo Drop (1995)'
p472
sS'3431'
p473
S'Death Wish II (1982)'
p474
sS'685'
p475
S"It's My Party (1995)"
p476
sS'684'
p477
S'Windows (1980)'
p478
sS'687'
p479
S'Country Life (1994)'
p480
sS'516'
p481
S'Renaissance Man (1994)'
p482
sS'681'
p483
S'Clean Slate (Coup de Torchon) (1981)'
p484
sS'680'
p485
S'Alphaville (1965)'
p486
sS'683'
p487
S"Eye of Vichy, The (Oeil de Vichy, L') (1993)"
p488
sS'682'
p489
S'Tigrero: A Film That Was Never Made (1994)'
p490
sS'458'
p491
S'Geronimo: An American Legend (1993)'
p492
sS'3433'
p493
S'Death Wish 4: The Crackdown (1987)'
p494
sS'1349'
p495
S'Nosferatu a Venezia (1986)'
p496
sS'3434'
p497
S'Death Wish V: The Face of Death (1994)'
p498
sS'621'
p499
S'My Favorite Season (1993)'
p500
sS'873'
p501
S'Shadow of Angels (Schatten der Engel) (1976)'
p502
sS'1224'
p503
S'Henry V (1989)'
p504
sS'3436'
p505
S'Dying Young (1991)'
p506
sS'1223'
p507
S'Grand Day Out, A (1992)'
p508
sS'3437'
p509
S'Cool as Ice (1991)'
p510
sS'1222'
p511
S'Full Metal Jacket (1987)'
p512
sS'2741'
p513
S'No Mercy (1986)'
p514
sS'1221'
p515
S'Godfather: Part II, The (1974)'
p516
sS'2740'
p517
S'Kindred, The (1986)'
p518
sS'1220'
p519
S'Blues Brothers, The (1980)'
p520
sS'2743'
p521
S'Native Son (1986)'
p522
sS'407'
p523
S'In the Mouth of Madness (1995)'
p524
sS'406'
p525
S'Federal Hill (1994)'
p526
sS'1373'
p527
S'Star Trek V: The Final Frontier (1989)'
p528
sS'1372'
p529
S'Star Trek VI: The Undiscovered Country (1991)'
p530
sS'1375'
p531
S'Star Trek III: The Search for Spock (1984)'
p532
sS'1374'
p533
S'Star Trek: The Wrath of Khan (1982)'
p534
sS'1377'
p535
S'Batman Returns (1992)'
p536
sS'400'
p537
S'Homage (1995)'
p538
sS'1379'
p539
S'Young Guns II (1990)'
p540
sS'1378'
p541
S'Young Guns (1988)'
p542
sS'1219'
p543
S'Psycho (1960)'
p544
sS'452'
p545
S"Widows' Peak (1994)"
p546
sS'409'
p547
S'Above the Rim (1994)'
p548
sS'408'
p549
S'8 Seconds (1994)'
p550
sS'3834'
p551
S'Bronco Billy (1980)'
p552
sS'3835'
p553
S'Crush, The (1993)'
p554
sS'3836'
p555
S"Kelly's Heroes (1970)"
p556
sS'1343'
p557
S'Cape Fear (1991)'
p558
sS'3830'
p559
S'Psycho Beach Party (2000)'
p560
sS'2747'
p561
S'Little Shop of Horrors, The (1960)'
p562
sS'3832'
p563
S'Black Sabbath (Tre Volti Della Paura, I) (1963)'
p564
sS'3833'
p565
S"Brain That Wouldn't Die, The (1962)"
p566
sS'454'
p567
S'Firm, The (1993)'
p568
sS'2148'
p569
S'House (1986)'
p570
sS'3838'
p571
S'Phantasm III: Lord of the Dead (1994)'
p572
sS'3839'
p573
S'Phantasm IV: Oblivion (1998)'
p574
sS'455'
p575
S'Free Willy (1993)'
p576
sS'2749'
p577
S'Morning After, The (1986)'
p578
sS'456'
p579
S'Fresh (1994)'
p580
sS'2748'
p581
S'Allan Quartermain and the Lost City of Gold (1987)'
p582
sS'457'
p583
S'Fugitive, The (1993)'
p584
sS'3796'
p585
S'Wisdom of Crocodiles, The (a.k.a. Immortality) (2000)'
p586
sS'3569'
p587
S'Idiots, The (Idioterne) (1998)'
p588
sS'3224'
p589
S'Woman in the Dunes (Suna no onna) (1964)'
p590
sS'3206'
p591
S'Against All Odds (1984)'
p592
sS'379'
p593
S'Timecop (1994)'
p594
sS'378'
p595
S'Speechless (1994)'
p596
sS'3620'
p597
S'Myth of Fingerprints, The (1997)'
p598
sS'371'
p599
S'Paper, The (1994)'
p600
sS'370'
p601
S'Naked Gun 33 1/3: The Final Insult (1994)'
p602
sS'373'
p603
S'Red Rock West (1992)'
p604
sS'372'
p605
S'Reality Bites (1994)'
p606
sS'375'
p607
S'Safe Passage (1994)'
p608
sS'374'
p609
S'Richie Rich (1994)'
p610
sS'377'
p611
S'Speed (1994)'
p612
sS'376'
p613
S'River Wild, The (1994)'
p614
sS'3093'
p615
S'McCabe & Mrs. Miller (1971)'
p616
sS'3205'
p617
S'Black Sunday (La Maschera Del Demonio) (1960)'
p618
sS'393'
p619
S'Street Fighter (1994)'
p620
sS'392'
p621
S'Secret Adventures of Tom Thumb, The (1993)'
p622
sS'391'
p623
S"Jason's Lyric (1994)"
p624
sS'390'
p625
S'Faster Pussycat! Kill! Kill! (1965)'
p626
sS'397'
p627
S'Fear, The (1995)'
p628
sS'396'
p629
S'Fall Time (1995)'
p630
sS'395'
p631
S'Desert Winds (1995)'
p632
sS'394'
p633
S'Coldblooded (1995)'
p634
sS'399'
p635
S'Girl in the Cadillac (1995)'
p636
sS'398'
p637
S'Frank and Ollie (1995)'
p638
sS'3593'
p639
S'Battlefield Earth (2000)'
p640
sS'895'
p641
S'Venice/Venice (1992)'
p642
sS'2309'
p643
S'Inheritors, The (Die Siebtelbauern) (1998)'
p644
sS'2308'
p645
S'Detroit 9000 (1973)'
p646
sS'2301'
p647
S'History of the World: Part I (1981)'
p648
sS'2300'
p649
S'Producers, The (1968)'
p650
sS'2303'
p651
S'Nashville (1975)'
p652
sS'2302'
p653
S'My Cousin Vinny (1992)'
p654
sS'2305'
p655
S'Slam (1998)'
p656
sS'2304'
p657
S'Love Is the Devil (1998)'
p658
sS'2307'
p659
S'One Tough Cop (1998)'
p660
sS'2306'
p661
S'Holy Man (1998)'
p662
sS'3592'
p663
S'Time Masters (Les Ma\xeetres du Temps) (1982)'
p664
sS'2746'
p665
S'Little Shop of Horrors (1986)'
p666
sS'3748'
p667
S'Match, The (1999)'
p668
sS'3749'
p669
S'Time Regained (Le Temps Retrouv\xe9) (1999)'
p670
sS'3746'
p671
S'Butterfly (La Lengua de las Mariposas) (2000)'
p672
sS'3203'
p673
S'Dead Calm (1989)'
p674
sS'3744'
p675
S'Shaft (2000)'
p676
sS'3745'
p677
S'Titan A.E. (2000)'
p678
sS'3742'
p679
S'Battleship Potemkin, The (Bronenosets Potyomkin) (1925)'
p680
sS'3743'
p681
S'Boys and Girls (2000)'
p682
sS'3740'
p683
S'Big Trouble in Little China (1986)'
p684
sS'3741'
p685
S'Badlands (1973)'
p686
sS'245'
p687
S'Glass Shield, The (1994)'
p688
sS'244'
p689
S'Gumby: The Movie (1995)'
p690
sS'247'
p691
S'Heavenly Creatures (1994)'
p692
sS'246'
p693
S'Hoop Dreams (1994)'
p694
sS'241'
p695
S'Fluke (1995)'
p696
sS'240'
p697
S'Hideaway (1995)'
p698
sS'243'
p699
S'Gordy (1995)'
p700
sS'242'
p701
S'Farinelli: il castrato (1994)'
p702
sS'3591'
p703
S'Mr. Mom (1983)'
p704
sS'249'
p705
S'Immortal Beloved (1994)'
p706
sS'248'
p707
S'Houseguest (1994)'
p708
sS'2275'
p709
S'Six-String Samurai (1998)'
p710
sS'2274'
p711
S"Lilian's Story (1995)"
p712
sS'2277'
p713
S'Somewhere in the City (1997)'
p714
sS'2276'
p715
S"Soldier's Daughter Never Cries, A (1998)"
p716
sS'2271'
p717
S'Permanent Midnight (1998)'
p718
sS'2270'
p719
S'Century of Cinema, A (1994)'
p720
sS'2273'
p721
S'Rush Hour (1998)'
p722
sS'2272'
p723
S'One True Thing (1998)'
p724
sS'2404'
p725
S'Rambo III (1988)'
p726
sS'2279'
p727
S'Urban Legend (1998)'
p728
sS'2278'
p729
S'Ronin (1998)'
p730
sS'2337'
p731
S'Velvet Goldmine (1998)'
p732
sS'2198'
p733
S'Modulations (1998)'
p734
sS'2459'
p735
S'Texas Chainsaw Massacre, The (1974)'
p736
sS'2458'
p737
S'Armed and Dangerous (1986)'
p738
sS'2455'
p739
S'Fly, The (1986)'
p740
sS'2454'
p741
S'Fly, The (1958)'
p742
sS'2457'
p743
S'Running Scared (1986)'
p744
sS'2456'
p745
S'Fly II, The (1989)'
p746
sS'2451'
p747
S'Gate, The (1987)'
p748
sS'2450'
p749
S'Howard the Duck (1986)'
p750
sS'2453'
p751
S'Boy Who Could Fly, The (1986)'
p752
sS'2452'
p753
S'Gate II: Trespassers, The (1990)'
p754
sS'179'
p755
S'Mad Love (1995)'
p756
sS'178'
p757
S'Love & Human Remains (1993)'
p758
sS'177'
p759
S'Lord of Illusions (1995)'
p760
sS'176'
p761
S'Living in Oblivion (1995)'
p762
sS'175'
p763
S'Kids (1995)'
p764
sS'174'
p765
S'Jury Duty (1995)'
p766
sS'173'
p767
S'Judge Dredd (1995)'
p768
sS'172'
p769
S'Johnny Mnemonic (1995)'
p770
sS'171'
p771
S'Jeffrey (1995)'
p772
sS'170'
p773
S'Hackers (1995)'
p774
sS'2051'
p775
S'Herbie Goes to Monte Carlo (1977)'
p776
sS'1502'
p777
S'Kissed (1996)'
p778
sS'2053'
p779
S'Honey, I Blew Up the Kid (1992)'
p780
sS'2052'
p781
S'Hocus Pocus (1993)'
p782
sS'2055'
p783
S'Hot Lead and Cold Feet (1978)'
p784
sS'2054'
p785
S'Honey, I Shrunk the Kids (1989)'
p786
sS'2057'
p787
S'Incredible Journey, The (1963)'
p788
sS'1503'
p789
S'8 Heads in a Duffel Bag (1997)'
p790
sS'2059'
p791
S'Parent Trap, The (1998)'
p792
sS'2058'
p793
S'Negotiator, The (1998)'
p794
sS'3692'
p795
S"Class of Nuke 'Em High (1986)"
p796
sS'3693'
p797
S'Toxic Avenger, The (1985)'
p798
sS'3694'
p799
S'Toxic Avenger, Part II, The (1989)'
p800
sS'1500'
p801
S'Grosse Pointe Blank (1997)'
p802
sS'3696'
p803
S'Night of the Creeps (1986)'
p804
sS'3697'
p805
S'Predator 2 (1990)'
p806
sS'3952'
p807
S'Contender, The (2000)'
p808
sS'1501'
p809
S'Keys to Tulsa (1997)'
p810
sS'3596'
p811
S'Screwed (2000)'
p812
sS'3089'
p813
S'Bicycle Thief, The (Ladri di biciclette) (1948)'
p814
sS'2968'
p815
S'Time Bandits (1981)'
p816
sS'1507'
p817
S'Paradise Road (1997)'
p818
sS'1504'
p819
S'Hollow Reed (1996)'
p820
sS'3526'
p821
S'Parenthood (1989)'
p822
sS'2157'
p823
S'Chambermaid on the Titanic, The (1998)'
p824
sS'3524'
p825
S'Arthur (1981)'
p826
sS'3525'
p827
S'Bachelor Party (1984)'
p828
sS'3522'
p829
S'Sacco and Vanzetti (Sacco e Vanzetti) (1971)'
p830
sS'3523'
p831
S'Taffin (1988)'
p832
sS'3520'
p833
S'How to Stuff a Wild Bikini (1965)'
p834
sS'3521'
p835
S'Mystery Train (1989)'
p836
sS'3087'
p837
S'Scrooged (1988)'
p838
sS'1227'
p839
S'Once Upon a Time in America (1984)'
p840
sS'3529'
p841
S'Postman Always Rings Twice, The (1981)'
p842
sS'3086'
p843
S'March of the Wooden Soldiers (a.k.a. Laurel & Hardy in Toyland) (1934)'
p844
sS'3543'
p845
S'Diner (1982)'
p846
sS'3594'
p847
S'Center Stage (2000)'
p848
sS'1977'
p849
S'Friday the 13th: The Final Chapter (1984)'
p850
sS'3083'
p851
S'All About My Mother (Todo Sobre Mi Madre) (1999)'
p852
sS'2699'
p853
S'Arachnophobia (1990)'
p854
sS'1976'
p855
S'Friday the 13th Part 3: 3D (1982)'
p856
sS'2697'
p857
S'My Son the Fanatic (1998)'
p858
sS'2696'
p859
S'Dinner Game, The (Le D\xeener de cons) (1998)'
p860
sS'2695'
p861
S'Boys, The (1997)'
p862
sS'2694'
p863
S'Big Daddy (1999)'
p864
sS'2693'
p865
S'Trekkies (1997)'
p866
sS'1975'
p867
S'Friday the 13th Part 2 (1981)'
p868
sS'2691'
p869
S"Legend of 1900, The (Leggenda del pianista sull'oceano) (1998)"
p870
sS'2690'
p871
S'Ideal Husband, An (1999)'
p872
sS'2405'
p873
S'Jewel of the Nile, The (1985)'
p874
sS'1974'
p875
S'Friday the 13th (1980)'
p876
sS'3782'
p877
S"Shaft's Big Score! (1972)"
p878
sS'1973'
p879
S"Freddy's Dead: The Final Nightmare (1991)"
p880
sS'1972'
p881
S'Nightmare on Elm Street 5: The Dream Child, A (1989)'
p882
sS'3223'
p883
S'Zed & Two Noughts, A (1985)'
p884
sS'1970'
p885
S'Nightmare on Elm Street 3: Dream Warriors, A (1987)'
p886
sS'3232'
p887
S'Seven Chances (1925)'
p888
sS'3233'
p889
S'Smashing Time (1967)'
p890
sS'3230'
p891
S'Odessa File, The (1974)'
p892
sS'3231'
p893
S'Saphead, The (1920)'
p894
sS'1968'
p895
S'Breakfast Club, The (1985)'
p896
sS'1969'
p897
S"Nightmare on Elm Street Part 2: Freddy's Revenge, A (1985)"
p898
sS'3234'
p899
S'Train Ride to Hollywood (1978)'
p900
sS'1619'
p901
S'Seven Years in Tibet (1997)'
p902
sS'1616'
p903
S'Peacemaker, The (1997)'
p904
sS'1617'
p905
S'L.A. Confidential (1997)'
p906
sS'1614'
p907
S'In & Out (1997)'
p908
sS'1615'
p909
S'Edge, The (1997)'
p910
sS'1612'
p911
S'Kiss Me, Guido (1997)'
p912
sS'1613'
p913
S'Star Maps (1997)'
p914
sS'1610'
p915
S'Hunt for Red October, The (1990)'
p916
sS'1611'
p917
S'My Own Private Idaho (1991)'
p918
sS'1985'
p919
S'Halloween 4: The Return of Michael Myers (1988)'
p920
sS'3650'
p921
S'Anguish (Angustia) (1986)'
p922
sS'2873'
p923
S'Lulu on the Bridge (1998)'
p924
sS'2872'
p925
S'Excalibur (1981)'
p926
sS'2871'
p927
S'Deliverance (1972)'
p928
sS'2870'
p929
S'Barefoot in the Park (1967)'
p930
sS'2877'
p931
S'Tommy (1975)'
p932
sS'2876'
p933
S'Thumbelina (1994)'
p934
sS'2875'
p935
S'Sommersby (1993)'
p936
sS'2542'
p937
S'Lock, Stock & Two Smoking Barrels (1998)'
p938
sS'2879'
p939
S'Operation Condor (Feiying gaiwak) (1990)'
p940
sS'2878'
p941
S'Hell Night (1981)'
p942
sS'3355'
p943
S'Ninth Gate, The (2000)'
p944
sS'3354'
p945
S'Mission to Mars (2000)'
p946
sS'3357'
p947
S'East-West (Est-ouest) (1999)'
p948
sS'3356'
p949
S'Condo Painting (2000)'
p950
sS'3351'
p951
S'Two Thousand Maniacs! (1964)'
p952
sS'3350'
p953
S'Raisin in the Sun, A (1961)'
p954
sS'3353'
p955
S'Closer You Get, The (2000)'
p956
sS'3352'
p957
S"Brown's Requiem (1998)"
p958
sS'3359'
p959
S'Breaking Away (1979)'
p960
sS'3358'
p961
S'Defending Your Life (1991)'
p962
sS'3781'
p963
S'Shaft in Africa (1973)'
p964
sS'2544'
p965
S"School of Flesh, The (L' \xc9cole de la chair) (1998)"
p966
sS'1768'
p967
S"Mat' i syn (1997)"
p968
sS'1769'
p969
S'Replacement Killers, The (1998)'
p970
sS'1762'
p971
S'Deep Rising (1998)'
p972
sS'1760'
p973
S'Spice World (1997)'
p974
sS'1767'
p975
S'Music From Another Room (1998)'
p976
sS'1764'
p977
S'Tainted (1998)'
p978
sS'1765'
p979
S'Letter From Death Row, A (1998)'
p980
sS'1142'
p981
S'Get Over It (1996)'
p982
sS'1143'
p983
S'Three Lives and Only One Death (1996)'
p984
sS'1140'
p985
S'Entertaining Angels: The Dorothy Day Story (1996)'
p986
sS'1141'
p987
S'Hoogste tijd (1995)'
p988
sS'1146'
p989
S"Curtis's Charm (1995)"
p990
sS'1147'
p991
S'When We Were Kings (1996)'
p992
sS'1144'
p993
S'Line King: Al Hirschfeld, The (1996)'
p994
sS'1145'
p995
S'Snowriders (1996)'
p996
sS'1148'
p997
S'Wrong Trousers, The (1993)'
p998
sS'1149'
p999
S'JLG/JLG - autoportrait de d\xe9cembre (1994)'
p1000
sS'2967'
p1001
S'Bad Seed, The (1956)'
p1002
sS'2966'
p1003
S'Straight Story, The (1999)'
p1004
sS'2402'
p1005
S'Rambo: First Blood Part II (1985)'
p1006
sS'692'
p1007
S'Solo (1996)'
p1008
sS'693'
p1009
S'Under the Domin Tree (Etz Hadomim Tafus) (1994)'
p1010
sS'690'
p1011
S'Promise, The (Versprechen, Das) (1994)'
p1012
sS'691'
p1013
S'Mrs. Winterbourne (1996)'
p1014
sS'696'
p1015
S'Butterfly Kiss (1995)'
p1016
sS'697'
p1017
S'Feeling Minnesota (1996)'
p1018
sS'694'
p1019
S'Substitute, The (1996)'
p1020
sS'695'
p1021
S'True Crime (1995)'
p1022
sS'698'
p1023
S'Delta of Venus (1994)'
p1024
sS'699'
p1025
S'To Cross the Rubicon (1991)'
p1026
sS'1548'
p1027
S'War at Home, The (1996)'
p1028
sS'1549'
p1029
S'Rough Magic (1995)'
p1030
sS'542'
p1031
S'Son in Law (1993)'
p1032
sS'543'
p1033
S'So I Married an Axe Murderer (1993)'
p1034
sS'540'
p1035
S'Sliver (1993)'
p1036
sS'541'
p1037
S'Blade Runner (1982)'
p1038
sS'546'
p1039
S'Super Mario Bros. (1993)'
p1040
sS'547'
p1041
S'Surviving the Game (1994)'
p1042
sS'544'
p1043
S'Striking Distance (1993)'
p1044
sS'545'
p1045
S'Harlem (1993)'
p1046
sS'3784'
p1047
S'Kid, The (2000)'
p1048
sS'548'
p1049
S'Terminal Velocity (1994)'
p1050
sS'549'
p1051
S'Thirty-Two Short Films About Glenn Gould (1993)'
p1052
sS'1782'
p1053
S'Little City (1998)'
p1054
sS'3885'
p1055
S'Love & Sex (2000)'
p1056
sS'1783'
p1057
S'Palmetto (1998)'
p1058
sS'1784'
p1059
S'As Good As It Gets (1997)'
p1060
sS'1785'
p1061
S'King of New York (1990)'
p1062
sS'2388'
p1063
S'Steam: The Turkish Bath (Hamam) (1997)'
p1064
sS'1787'
p1065
S'Paralyzing Fear: The Story of Polio in America, A (1998)'
p1066
sS'3880'
p1067
S"Ballad of Ramblin' Jack, The (2000)"
p1068
sS'3320'
p1069
S'Mifune (Mifunes sidste sang) (1999)'
p1070
sS'3547'
p1071
S'Prick Up Your Ears (1987)'
p1072
sS'414'
p1073
S'Air Up There, The (1994)'
p1074
sS'415'
p1075
S'Another Stakeout (1993)'
p1076
sS'416'
p1077
S'Bad Girls (1994)'
p1078
sS'417'
p1079
S'Barcelona (1994)'
p1080
sS'410'
p1081
S'Addams Family Values (1993)'
p1082
sS'411'
p1083
S'You So Crazy (1994)'
p1084
sS'412'
p1085
S'Age of Innocence, The (1993)'
p1086
sS'413'
p1087
S'Airheads (1994)'
p1088
sS'1384'
p1089
S'Substance of Fire, The (1996)'
p1090
sS'1385'
p1091
S'Under Siege (1992)'
p1092
sS'1386'
p1093
S'Terror in a Texas Town (1958)'
p1094
sS'1387'
p1095
S'Jaws (1975)'
p1096
sS'1380'
p1097
S'Grease (1978)'
p1098
sS'1381'
p1099
S'Grease 2 (1982)'
p1100
sS'1382'
p1101
S'Marked for Death (1990)'
p1102
sS'1383'
p1103
S'Adrenalin: Fear the Rush (1996)'
p1104
sS'3827'
p1105
S'Space Cowboys (2000)'
p1106
sS'3826'
p1107
S'Hollow Man (2000)'
p1108
sS'3825'
p1109
S'Coyote Ugly (2000)'
p1110
sS'3824'
p1111
S'Autumn in New York (2000)'
p1112
sS'3823'
p1113
S'Wonderland (1999)'
p1114
sS'3822'
p1115
S'Girl on the Bridge, The (La Fille sur le Pont) (1999)'
p1116
sS'3821'
p1117
S'Nutty Professor II: The Klumps (2000)'
p1118
sS'3820'
p1119
S'Thomas and the Magic Railroad (2000)'
p1120
sS'3582'
p1121
S'Jails, Hospitals & Hip-Hop (2000)'
p1122
sS'3829'
p1123
S'Mad About Mambo (2000)'
p1124
sS'3828'
p1125
S'Better Living (1998)'
p1126
sS'3583'
p1127
S'Black Tights (Les Collants Noirs) (1960)'
p1128
sS'2446'
p1129
S'In Dreams (1999)'
p1130
sS'2438'
p1131
S'Outside Ozona (1998)'
p1132
sS'3042'
p1133
S'Meatballs III (1987)'
p1134
sS'3587'
p1135
S'Inferno (1980)'
p1136
sS'3588'
p1137
S'King of Marvin Gardens, The (1972)'
p1138
sS'368'
p1139
S'Maverick (1994)'
p1140
sS'369'
p1141
S'Mrs. Parker and the Vicious Circle (1994)'
p1142
sS'366'
p1143
S"Wes Craven's New Nightmare (1994)"
p1144
sS'367'
p1145
S'Mask, The (1994)'
p1146
sS'364'
p1147
S'Lion King, The (1994)'
p1148
sS'365'
p1149
S'Little Buddha (1993)'
p1150
sS'362'
p1151
S'Jungle Book, The (1994)'
p1152
sS'363'
p1153
S'Wonderful, Horrible Life of Leni Riefenstahl, The (Die Macht der Bilder) (1993)'
p1154
sS'360'
p1155
S'I Love Trouble (1994)'
p1156
sS'361'
p1157
S'It Could Happen to You (1994)'
p1158
sS'2760'
p1159
S'Gambler, The (A J\xe1t\xe9kos) (1997)'
p1160
sS'3202'
p1161
S'Even Dwarfs Started Small (Auch Zwerge haben klein angefangen) (1971)'
p1162
sS'380'
p1163
S'True Lies (1994)'
p1164
sS'381'
p1165
S'When a Man Loves a Woman (1994)'
p1166
sS'382'
p1167
S'Wolf (1994)'
p1168
sS'383'
p1169
S'Wyatt Earp (1994)'
p1170
sS'384'
p1171
S'Bad Company (1995)'
p1172
sS'385'
p1173
S'Man of No Importance, A (1994)'
p1174
sS'386'
p1175
S'S.F.W. (1994)'
p1176
sS'387'
p1177
S'Low Down Dirty Shame, A (1994)'
p1178
sS'388'
p1179
S'Boys Life (1995)'
p1180
sS'389'
p1181
S'Colonel Chabert, Le (1994)'
p1182
sS'3215'
p1183
S'Voyage of the Damned (1976)'
p1184
sS'2908'
p1185
S"Boys Don't Cry (1999)"
p1186
sS'2792'
p1187
S'Airplane II: The Sequel (1982)'
p1188
sS'3216'
p1189
S'Vampyros Lesbos (Las Vampiras) (1970)'
p1190
sS'3759'
p1191
S'Fun and Fancy Free (1947)'
p1192
sS'3758'
p1193
S'Communion (1989)'
p1194
sS'3751'
p1195
S'Chicken Run (2000)'
p1196
sS'3750'
p1197
S"Boricua's Bond (2000)"
p1198
sS'3753'
p1199
S'Patriot, The (2000)'
p1200
sS'3752'
p1201
S'Me, Myself and Irene (2000)'
p1202
sS'3755'
p1203
S'Perfect Storm, The (2000)'
p1204
sS'3754'
p1205
S'Adventures of Rocky and Bullwinkle, The (2000)'
p1206
sS'3757'
p1207
S'Asylum (1972)'
p1208
sS'3756'
p1209
S'Golden Bowl, The (2000)'
p1210
sS'2190'
p1211
S'Why Do Fools Fall In Love? (1998)'
p1212
sS'2191'
p1213
S'Merry War, A (1997)'
p1214
sS'258'
p1215
S"Kid in King Arthur's Court, A (1995)"
p1216
sS'259'
p1217
S'Kiss of Death (1995)'
p1218
sS'2194'
p1219
S'Untouchables, The (1987)'
p1220
sS'2195'
p1221
S'Dirty Work (1998)'
p1222
sS'2196'
p1223
S'Knock Off (1998)'
p1224
sS'2197'
p1225
S'Firelight (1997)'
p1226
sS'252'
p1227
S'I.Q. (1994)'
p1228
sS'253'
p1229
S'Interview with the Vampire (1994)'
p1230
sS'250'
p1231
S'Heavyweights (1994)'
p1232
sS'251'
p1233
S'Hunted, The (1995)'
p1234
sS'256'
p1235
S'Junior (1994)'
p1236
sS'257'
p1237
S'Just Cause (1995)'
p1238
sS'254'
p1239
S'Jefferson in Paris (1995)'
p1240
sS'255'
p1241
S'Jerky Boys, The (1994)'
p1242
sS'2200'
p1243
S'Under Capricorn (1949)'
p1244
sS'2201'
p1245
S'Paradine Case, The (1947)'
p1246
sS'2202'
p1247
S'Lifeboat (1944)'
p1248
sS'2203'
p1249
S'Shadow of a Doubt (1943)'
p1250
sS'2204'
p1251
S'Saboteur (1942)'
p1252
sS'2205'
p1253
S'Mr. & Mrs. Smith (1941)'
p1254
sS'2206'
p1255
S'Suspicion (1941)'
p1256
sS'2207'
p1257
S'Jamaica Inn (1939)'
p1258
sS'2208'
p1259
S'Lady Vanishes, The (1938)'
p1260
sS'2209'
p1261
S'Young and Innocent (1937)'
p1262
sS'3210'
p1263
S'Fast Times at Ridgemont High (1982)'
p1264
sS'1679'
p1265
S'Chairman of the Board (1998)'
p1266
sS'2428'
p1267
S'Faculty, The (1998)'
p1268
sS'2429'
p1269
S'Mighty Joe Young (1998)'
p1270
sS'2400'
p1271
S'Prancer (1989)'
p1272
sS'2420'
p1273
S'Karate Kid, The (1984)'
p1274
sS'2421'
p1275
S'Karate Kid, Part II, The (1986)'
p1276
sS'2422'
p1277
S'Karate Kid III, The (1989)'
p1278
sS'2423'
p1279
S'Christmas Vacation (1989)'
p1280
sS'2424'
p1281
S"You've Got Mail (1998)"
p1282
sS'1849'
p1283
S'Prince Valiant (1997)'
p1284
sS'2426'
p1285
S'Theory of Flight, The (1998)'
p1286
sS'2427'
p1287
S'Thin Red Line, The (1998)'
p1288
sS'2432'
p1289
S'Stepmom (1998)'
p1290
sS'1848'
p1291
S'Borrowers, The (1997)'
p1292
sS'168'
p1293
S'First Knight (1995)'
p1294
sS'169'
p1295
S'Free Willy 2: The Adventure Home (1995)'
p1296
sS'164'
p1297
S'Devil in a Blue Dress (1995)'
p1298
sS'165'
p1299
S'Die Hard: With a Vengeance (1995)'
p1300
sS'166'
p1301
S'Doom Generation, The (1995)'
p1302
sS'167'
p1303
S'Feast of July (1995)'
p1304
sS'160'
p1305
S'Congo (1995)'
p1306
sS'161'
p1307
S'Crimson Tide (1995)'
p1308
sS'162'
p1309
S'Crumb (1994)'
p1310
sS'163'
p1311
S'Desperado (1995)'
p1312
sS'3689'
p1313
S"Porky's II: The Next Day (1983)"
p1314
sS'3688'
p1315
S"Porky's (1981)"
p1316
sS'3683'
p1317
S'Blood Simple (1984)'
p1318
sS'3682'
p1319
S'Magnum Force (1973)'
p1320
sS'3681'
p1321
S'For a Few Dollars More (1965)'
p1322
sS'3680'
p1323
S'Decline of Western Civilization Part II: The Metal Years, The (1988)'
p1324
sS'3687'
p1325
S'Light Years (1988)'
p1326
sS'3686'
p1327
S'Flatliners (1990)'
p1328
sS'3685'
p1329
S"Prizzi's Honor (1985)"
p1330
sS'3684'
p1331
S'Fabulous Baker Boys, The (1989)'
p1332
sS'3257'
p1333
S'Bodyguard, The (1992)'
p1334
sS'3212'
p1335
S'Born to Win (1971)'
p1336
sS'2518'
p1337
S'Night Shift (1982)'
p1338
sS'2519'
p1339
S'House on Haunted Hill (1958)'
p1340
sS'1842'
p1341
S'Illtown (1996)'
p1342
sS'2514'
p1343
S'Pet Sematary II (1992)'
p1344
sS'2515'
p1345
S'Children of the Corn II: The Final Sacrifice (1993)'
p1346
sS'2516'
p1347
S'Children of the Corn III (1994)'
p1348
sS'2517'
p1349
S'Christine (1983)'
p1350
sS'2510'
p1351
S'Just the Ticket (1999)'
p1352
sS'1841'
p1353
S'Gingerbread Man, The (1998)'
p1354
sS'2512'
p1355
S'Ballad of Narayama, The (Narayama Bushiko) (1982)'
p1356
sS'2513'
p1357
S'Pet Sematary (1989)'
p1358
sS'2734'
p1359
S'Mosquito Coast, The (1986)'
p1360
sS'2735'
p1361
S'Golden Child, The (1986)'
p1362
sS'2736'
p1363
S'Brighton Beach Memoirs (1986)'
p1364
sS'1840'
p1365
S'He Got Game (1998)'
p1366
sS'2730'
p1367
S'Barry Lyndon (1975)'
p1368
sS'2731'
p1369
S'400 Blows, The (Les Quatre cents coups) (1959)'
p1370
sS'2732'
p1371
S'Jules and Jim (Jules et Jim) (1961)'
p1372
sS'2733'
p1373
S'Vibes (1988)'
p1374
sS'2738'
p1375
S'Crimes of the Heart (1986)'
p1376
sS'2739'
p1377
S'Color Purple, The (1985)'
p1378
sS'3531'
p1379
S'All the Vermeers in New York (1990)'
p1380
sS'3530'
p1381
S'Smoking/No Smoking (1993)'
p1382
sS'3533'
p1383
S"Actor's Revenge, An (Yukinojo Henge) (1963)"
p1384
sS'3532'
p1385
S'Freedom for Us (\xc0 nous la libert\xe9 ) (1931)'
p1386
sS'3535'
p1387
S'American Psycho (2000)'
p1388
sS'3534'
p1389
S'28 Days (2000)'
p1390
sS'3537'
p1391
S'Where the Money Is (2000)'
p1392
sS'3536'
p1393
S'Keeping the Faith (2000)'
p1394
sS'3539'
p1395
S'Filth and the Fury, The (2000)'
p1396
sS'678'
p1397
S'Some Folks Call It a Sling Blade (1993)'
p1398
sS'679'
p1399
S'Run of the Country, The (1995)'
p1400
sS'1814'
p1401
S'Price Above Rubies, A (1998)'
p1402
sS'1815'
p1403
S'Eden (1997)'
p1404
sS'1816'
p1405
S'Two Girls and a Guy (1997)'
p1406
sS'1817'
p1407
S'No Looking Back (1998)'
p1408
sS'1810'
p1409
S'Primary Colors (1998)'
p1410
sS'1811'
p1411
S'Niagara, Niagara (1997)'
p1412
sS'1812'
p1413
S'Wide Awake (1998)'
p1414
sS'1819'
p1415
S'Storefront Hitchcock (1997)'
p1416
sS'670'
p1417
S'World of Apu, The (Apur Sansar) (1959)'
p1418
sS'2795'
p1419
S'Vacation (1983)'
p1420
sS'671'
p1421
S'Mystery Science Theater 3000: The Movie (1996)'
p1422
sS'2401'
p1423
S'Pale Rider (1985)'
p1424
sS'1609'
p1425
S'187 (1997)'
p1426
sS'1608'
p1427
S'Air Force One (1997)'
p1428
sS'3229'
p1429
S"Another Man's Poison (1952)"
p1430
sS'3228'
p1431
S'Wirey Spindell (1999)'
p1432
sS'1979'
p1433
S'Friday the 13th Part VI: Jason Lives (1986)'
p1434
sS'1978'
p1435
S'Friday the 13th Part V: A New Beginning (1985)'
p1436
sS'1601'
p1437
S'Hoodlum (1997)'
p1438
sS'1600'
p1439
S"She's So Lovely (1997)"
p1440
sS'1603'
p1441
S'Mimic (1997)'
p1442
sS'1602'
p1443
S'Leave It to Beaver (1997)'
p1444
sS'1605'
p1445
S'Excess Baggage (1997)'
p1446
sS'1604'
p1447
S'Money Talks (1997)'
p1448
sS'1971'
p1449
S'Nightmare on Elm Street 4: The Dream Master, A (1988)'
p1450
sS'1606'
p1451
S'Kull the Conqueror (1997)'
p1452
sS'809'
p1453
S'Fled (1996)'
p1454
sS'808'
p1455
S'Alaska (1996)'
p1456
sS'803'
p1457
S'Walking and Talking (1996)'
p1458
sS'802'
p1459
S'Phenomenon (1996)'
p1460
sS'801'
p1461
S'Harriet the Spy (1996)'
p1462
sS'800'
p1463
S'Lone Star (1996)'
p1464
sS'807'
p1465
S'Rendezvous in Paris (Rendez-vous de Paris, Les) (1995)'
p1466
sS'806'
p1467
S'American Buffalo (1996)'
p1468
sS'805'
p1469
S'Time to Kill, A (1996)'
p1470
sS'804'
p1471
S"She's the One (1996)"
p1472
sS'2848'
p1473
S'Othello (1952)'
p1474
sS'2849'
p1475
S'Queens Logic (1991)'
p1476
sS'2846'
p1477
S'Adventures of Milo and Otis, The (1986)'
p1478
sS'2847'
p1479
S'Only Angels Have Wings (1939)'
p1480
sS'2844'
p1481
S'Minus Man, The (1999)'
p1482
sS'2845'
p1483
S'White Boys (1999)'
p1484
sS'2842'
p1485
S'Best Laid Plans (1999)'
p1486
sS'2843'
p1487
S'Black Cat, White Cat (Crna macka, beli macor) (1998)'
p1488
sS'2840'
p1489
S'Stigmata (1999)'
p1490
sS'2841'
p1491
S'Stir of Echoes (1999)'
p1492
sS'3039'
p1493
S'Trading Places (1983)'
p1494
sS'3321'
p1495
S'Waiting Game, The (2000)'
p1496
sS'3322'
p1497
S'3 Strikes (2000)'
p1498
sS'3323'
p1499
S'Chain of Fools (2000)'
p1500
sS'3324'
p1501
S'Drowning Mona (2000)'
p1502
sS'3325'
p1503
S'Next Best Thing, The (2000)'
p1504
sS'3326'
p1505
S'What Planet Are You From? (2000)'
p1506
sS'3327'
p1507
S'Beyond the Mat (2000)'
p1508
sS'3328'
p1509
S'Ghost Dog: The Way of the Samurai (1999)'
p1510
sS'3329'
p1511
S'Year My Voice Broke, The (1987)'
p1512
sS'3589'
p1513
S'Kill, Baby... Kill! (Operazione Paura) (1966)'
p1514
sS'1774'
p1515
S'Mass Transit (1998)'
p1516
sS'1777'
p1517
S'Wedding Singer, The (1998)'
p1518
sS'1776'
p1519
S'Ride (1998)'
p1520
sS'1771'
p1521
S'Night Flier (1997)'
p1522
sS'1770'
p1523
S'B. Monkey (1998)'
p1524
sS'1773'
p1525
S'Tokyo Fist (1995)'
p1526
sS'1772'
p1527
S'Blues Brothers 2000 (1998)'
p1528
sS'1779'
p1529
S'Sphere (1998)'
p1530
sS'608'
p1531
S'Fargo (1996)'
p1532
sS'2998'
p1533
S'Dreaming of Joseph Lees (1998)'
p1534
sS'1159'
p1535
S'Love in Bloom (1935)'
p1536
sS'1158'
p1537
S'Here Comes Cookie (1935)'
p1538
sS'2999'
p1539
S'Man of the Century (1999)'
p1540
sS'1155'
p1541
S'Invitation, The (Zaproszenie) (1986)'
p1542
sS'1154'
p1543
S'T-Men (1947)'
p1544
sS'1157'
p1545
S'Symphonie pastorale, La (1946)'
p1546
sS'1156'
p1547
S'Children Are Watching us, The (Bambini ci guardano, I) (1942)'
p1548
sS'1151'
p1549
S'Faust (1994)'
p1550
sS'1150'
p1551
S'Return of Martin Guerre, The (Retour de Martin Guerre, Le) (1982)'
p1552
sS'1153'
p1553
S'Raw Deal (1948)'
p1554
sS'1152'
p1555
S'He Walked by Night (1948)'
p1556
sS'1555'
p1557
S'To Have, or Not (1995)'
p1558
sS'2618'
p1559
S'Castle, The (1997)'
p1560
sS'1554'
p1561
S'Pillow Book, The (1995)'
p1562
sS'1551'
p1563
S'Buddy (1997)'
p1564
sS'1550'
p1565
S'Trial and Error (1997)'
p1566
sS'1553'
p1567
S'Late Bloomers (1996)'
p1568
sS'1552'
p1569
S'Con Air (1997)'
p1570
sS'59'
p1571
S'Confessional, The (Le Confessionnal) (1995)'
p1572
sS'58'
p1573
S'Postino, Il (The Postman) (1994)'
p1574
sS'1557'
p1575
S'Squeeze (1996)'
p1576
sS'1556'
p1577
S'Speed 2: Cruise Control (1997)'
p1578
sS'55'
p1579
S'Georgia (1995)'
p1580
sS'54'
p1581
S'Big Green, The (1995)'
p1582
sS'57'
p1583
S'Home for the Holidays (1995)'
p1584
sS'56'
p1585
S'Kids of the Round Table (1995)'
p1586
sS'51'
p1587
S'Guardian Angel (1994)'
p1588
sS'50'
p1589
S'Usual Suspects, The (1995)'
p1590
sS'53'
p1591
S'Lamerica (1994)'
p1592
sS'52'
p1593
S'Mighty Aphrodite (1995)'
p1594
sS'537'
p1595
S'Sirens (1994)'
p1596
sS'536'
p1597
S'Simple Twist of Fate, A (1994)'
p1598
sS'535'
p1599
S'Short Cuts (1993)'
p1600
sS'534'
p1601
S'Shadowlands (1993)'
p1602
sS'533'
p1603
S'Shadow, The (1994)'
p1604
sS'532'
p1605
S'Serial Mom (1994)'
p1606
sS'531'
p1607
S'Secret Garden, The (1993)'
p1608
sS'530'
p1609
S'Second Best (1994)'
p1610
sS'2992'
p1611
S'Rawhead Rex (1986)'
p1612
sS'539'
p1613
S'Sleepless in Seattle (1993)'
p1614
sS'538'
p1615
S'Six Degrees of Separation (1993)'
p1616
sS'2993'
p1617
S'Thunderball (1965)'
p1618
sS'1558'
p1619
S'Sudden Manhattan (1996)'
p1620
sS'2994'
p1621
S'City, The (1998)'
p1622
sS'2995'
p1623
S'House on Haunted Hill, The (1999)'
p1624
sS'2805'
p1625
S'Mickey Blue Eyes (1999)'
p1626
sS'3294'
p1627
S'Eaten Alive (1976)'
p1628
sS'2996'
p1629
S'Music of the Heart (1999)'
p1630
sS'3295'
p1631
S'Raining Stones (1993)'
p1632
sS'2997'
p1633
S'Being John Malkovich (1999)'
p1634
sS'3296'
p1635
S'To Sir with Love (1967)'
p1636
sS'3297'
p1637
S'With Byrd at the South Pole (1930)'
p1638
sS'3290'
p1639
S'Soft Toilet Seats (1999)'
p1640
sS'3291'
p1641
S'Trois (2000)'
p1642
sS'429'
p1643
S'Cabin Boy (1994)'
p1644
sS'428'
p1645
S'Bronx Tale, A (1993)'
p1646
sS'3292'
p1647
S'Big Combo, The (1955)'
p1648
sS'1399'
p1649
S"Marvin's Room (1996)"
p1650
sS'1398'
p1651
S'In Love and War (1996)'
p1652
sS'421'
p1653
S'Black Beauty (1994)'
p1654
sS'420'
p1655
S'Beverly Hills Cop III (1994)'
p1656
sS'423'
p1657
S'Blown Away (1994)'
p1658
sS'422'
p1659
S'Blink (1994)'
p1660
sS'425'
p1661
S'Blue Sky (1994)'
p1662
sS'424'
p1663
S'Blue Chips (1994)'
p1664
sS'427'
p1665
S'Boxing Helena (1993)'
p1666
sS'426'
p1667
S'Body Snatchers (1993)'
p1668
sS'3812'
p1669
S'Everything You Always Wanted to Know About Sex (1972)'
p1670
sS'3452'
p1671
S'Romeo Must Die (2000)'
p1672
sS'3810'
p1673
S'White Sands (1992)'
p1674
sS'3811'
p1675
S'Breaker Morant (1980)'
p1676
sS'3816'
p1677
S'Official Story, The (La Historia Oficial) (1985)'
p1678
sS'3817'
p1679
S'Other Side of Sunday, The (S\xf8ndagsengler) (1996)'
p1680
sS'3814'
p1681
S'Love and Death (1975)'
p1682
sS'3453'
p1683
S'Here on Earth (2000)'
p1684
sS'3818'
p1685
S"Pot O' Gold (1941)"
p1686
sS'3819'
p1687
S'Tampopo (1986)'
p1688
sS'3450'
p1689
S'Grumpy Old Men (1993)'
p1690
sS'3451'
p1691
S"Guess Who's Coming to Dinner (1967)"
p1692
sS'3627'
p1693
S'Carnival of Souls (1962)'
p1694
sS'3456'
p1695
S'Color of Paradise, The (Rang-e Khoda) (1999)'
p1696
sS'3626'
p1697
S'8 1/2 Women (1999)'
p1698
sS'3457'
p1699
S'Waking the Dead (1999)'
p1700
sS'3454'
p1701
S'Whatever It Takes (2000)'
p1702
sS'3455'
p1703
S'Buddy Boy (1999)'
p1704
sS'3510'
p1705
S'Frequency (2000)'
p1706
sS'3517'
p1707
S'Bells, The (1926)'
p1708
sS'3516'
p1709
S'Bell, Book and Candle (1958)'
p1710
sS'3474'
p1711
S'Retroactive (1997)'
p1712
sS'3475'
p1713
S'Place in the Sun, A (1951)'
p1714
sS'2183'
p1715
S'Man Who Knew Too Much, The (1956)'
p1716
sS'2182'
p1717
S'Wrong Man, The (1956)'
p1718
sS'2181'
p1719
S'Marnie (1964)'
p1720
sS'2180'
p1721
S'Torn Curtain (1966)'
p1722
sS'2187'
p1723
S'Stage Fright (1950)'
p1724
sS'2186'
p1725
S'Strangers on a Train (1951)'
p1726
sS'229'
p1727
S'Death and the Maiden (1994)'
p1728
sS'228'
p1729
S'Destiny Turns on the Radio (1995)'
p1730
sS'227'
p1731
S'Drop Zone (1994)'
p1732
sS'226'
p1733
S'Dream Man (1995)'
p1734
sS'225'
p1735
S'Disclosure (1994)'
p1736
sS'224'
p1737
S'Don Juan DeMarco (1995)'
p1738
sS'223'
p1739
S'Clerks (1994)'
p1740
sS'222'
p1741
S'Circle of Friends (1995)'
p1742
sS'220'
p1743
S'Castle Freak (1995)'
p1744
sS'2213'
p1745
S'Waltzes from Vienna (1933)'
p1746
sS'2212'
p1747
S'Man Who Knew Too Much, The (1934)'
p1748
sS'2211'
p1749
S'Secret Agent (1936)'
p1750
sS'2210'
p1751
S'Sabotage (1936)'
p1752
sS'2217'
p1753
S'Elstree Calling (1930)'
p1754
sS'2216'
p1755
S'Skin Game, The (1931)'
p1756
sS'2215'
p1757
S'Rich and Strange (1932)'
p1758
sS'2214'
p1759
S'Number Seventeen (1932)'
p1760
sS'2219'
p1761
S'Murder! (1930)'
p1762
sS'2218'
p1763
S'Juno and Paycock (1930)'
p1764
sS'3698'
p1765
S'Running Man, The (1987)'
p1766
sS'2681'
p1767
S'Free Enterprise (1998)'
p1768
sS'2230'
p1769
S'Always Tell Your Wife (1923)'
p1770
sS'3549'
p1771
S'Guys and Dolls (1955)'
p1772
sS'151'
p1773
S'Rob Roy (1995)'
p1774
sS'150'
p1775
S'Apollo 13 (1995)'
p1776
sS'153'
p1777
S'Batman Forever (1995)'
p1778
sS'152'
p1779
S'Addiction, The (1995)'
p1780
sS'155'
p1781
S'Beyond Rangoon (1995)'
p1782
sS'154'
p1783
S'Belle de jour (1967)'
p1784
sS'157'
p1785
S'Canadian Bacon (1994)'
p1786
sS'156'
p1787
S'Blue in the Face (1995)'
p1788
sS'159'
p1789
S'Clockers (1995)'
p1790
sS'158'
p1791
S'Casper (1995)'
p1792
sS'2431'
p1793
S'Patch Adams (1998)'
p1794
sS'2430'
p1795
S'Mighty Joe Young (1949)'
p1796
sS'2437'
p1797
S'Wilde (1997)'
p1798
sS'2436'
p1799
S'Tea with Mussolini (1999)'
p1800
sS'2435'
p1801
S'Hurlyburly (1998)'
p1802
sS'2434'
p1803
S'Down in the Delta (1998)'
p1804
sS'3470'
p1805
S'Dersu Uzala (1974)'
p1806
sS'2509'
p1807
S'Eight Days a Week (1997)'
p1808
sS'2508'
p1809
S'Breaks, The (1999)'
p1810
sS'2507'
p1811
S'Breakfast of Champions (1999)'
p1812
sS'2506'
p1813
S'Other Sister, The (1999)'
p1814
sS'2505'
p1815
S'8MM (1999)'
p1816
sS'2504'
p1817
S'200 Cigarettes (1999)'
p1818
sS'2503'
p1819
S'Apple, The (Sib) (1998)'
p1820
sS'2502'
p1821
S'Office Space (1999)'
p1822
sS'2501'
p1823
S'October Sky (1999)'
p1824
sS'2500'
p1825
S'Jawbreaker (1999)'
p1826
sS'2727'
p1827
S"Killer's Kiss (1955)"
p1828
sS'2726'
p1829
S'Killing, The (1956)'
p1830
sS'2725'
p1831
S'Twin Falls Idaho (1999)'
p1832
sS'2724'
p1833
S'Runaway Bride (1999)'
p1834
sS'2723'
p1835
S'Mystery Men (1999)'
p1836
sS'2722'
p1837
S'Deep Blue Sea (1999)'
p1838
sS'2721'
p1839
S'Trick (1999)'
p1840
sS'2720'
p1841
S'Inspector Gadget (1999)'
p1842
sS'2729'
p1843
S'Lolita (1962)'
p1844
sS'2728'
p1845
S'Spartacus (1960)'
p1846
sS'2199'
p1847
S'Phoenix (1998)'
p1848
sS'1807'
p1849
S'Cool Dry Place, A (1998)'
p1850
sS'1806'
p1851
S'Paulie (1998)'
p1852
sS'1805'
p1853
S'Wild Things (1998)'
p1854
sS'1804'
p1855
S'Newton Boys, The (1998)'
p1856
sS'3786'
p1857
S"But I'm a Cheerleader (1999)"
p1858
sS'3787'
p1859
S'Shower (Xizhao) (1999)'
p1860
sS'1801'
p1861
S'Man in the Iron Mask, The (1998)'
p1862
sS'3785'
p1863
S'Scary Movie (2000)'
p1864
sS'3788'
p1865
S'Blowup (1966)'
p1866
sS'3789'
p1867
S'Pawnbroker, The (1965)'
p1868
sS'1809'
p1869
S'Hana-bi (1997)'
p1870
sS'3473'
p1871
S'Jonah Who Will Be 25 in the Year 2000 (1976)'
p1872
sS'3088'
p1873
S'Harvey (1950)'
p1874
sS'3710'
p1875
S'Action Jackson (1988)'
p1876
sS'3258'
p1877
S'Death Becomes Her (1992)'
p1878
sS'1524'
p1879
S'Turning, The (1992)'
p1880
sS'1948'
p1881
S'Tom Jones (1963)'
p1882
sS'1544'
p1883
S'Lost World: Jurassic Park, The (1997)'
p1884
sS'1525'
p1885
S'Warriors of Virtue (1997)'
p1886
sS'1942'
p1887
S"All the King's Men (1949)"
p1888
sS'1943'
p1889
S'Greatest Show on Earth, The (1952)'
p1890
sS'1940'
p1891
S"Gentleman's Agreement (1947)"
p1892
sS'1941'
p1893
S'Hamlet (1948)'
p1894
sS'1946'
p1895
S'Marty (1955)'
p1896
sS'1526'
p1897
S"Fathers' Day (1997)"
p1898
sS'1944'
p1899
S'From Here to Eternity (1953)'
p1900
sS'1945'
p1901
S'On the Waterfront (1954)'
p1902
sS'818'
p1903
S'Very Brady Sequel, A (1996)'
p1904
sS'819'
p1905
S'Stefano Quantestorie (1993)'
p1906
sS'1527'
p1907
S'Fifth Element, The (1997)'
p1908
sS'810'
p1909
S'Kazaam (1996)'
p1910
sS'811'
p1911
S'Bewegte Mann, Der (1994)'
p1912
sS'812'
p1913
S'Magic Hunter (1994)'
p1914
sS'813'
p1915
S'Larger Than Life (1996)'
p1916
sS'814'
p1917
S'Boy Called Hate, A (1995)'
p1918
sS'815'
p1919
S'Power 98 (1995)'
p1920
sS'816'
p1921
S'Two Deaths (1995)'
p1922
sS'2859'
p1923
S'Stop Making Sense (1984)'
p1924
sS'1545'
p1925
S'Ponette (1996)'
p1926
sS'3495'
p1927
S'Roadside Prophets (1992)'
p1928
sS'1522'
p1929
S'Ripe (1996)'
p1930
sS'1990'
p1931
S'Prom Night IV: Deliver Us From Evil (1992)'
p1932
sS'2851'
p1933
S'Saturn 3 (1979)'
p1934
sS'2850'
p1935
S'Public Access (1993)'
p1936
sS'2853'
p1937
S'Communion (a.k.a. Alice, Sweet Alice/Holy Terror) (1977)'
p1938
sS'1523'
p1939
S'Truth or Consequences, N.M. (1997)'
p1940
sS'2855'
p1941
S'Nightmares (1983)'
p1942
sS'1993'
p1943
S"Child's Play 3 (1992)"
p1944
sS'2857'
p1945
S'Yellow Submarine (1968)'
p1946
sS'2856'
p1947
S'I Saw What You Did (1965)'
p1948
sS'1490'
p1949
S'B*A*P*S (1997)'
p1950
sS'1397'
p1951
S'Bastard Out of Carolina (1996)'
p1952
sS'2295'
p1953
S'Impostors, The (1998)'
p1954
sS'1493'
p1955
S'Love and Other Catastrophes (1996)'
p1956
sS'1494'
p1957
S'Sixth Man, The (1997)'
p1958
sS'1495'
p1959
S'Turbo: A Power Rangers Movie (1997)'
p1960
sS'1496'
p1961
S'Anna Karenina (1997)'
p1962
sS'1396'
p1963
S'Sneakers (1992)'
p1964
sS'1498'
p1965
S'Inventing the Abbotts (1997)'
p1966
sS'1499'
p1967
S'Anaconda (1997)'
p1968
sS'3339'
p1969
S'Cross of Iron (1977)'
p1970
sS'3338'
p1971
S'For All Mankind (1989)'
p1972
sS'1395'
p1973
S'Tin Men (1987)'
p1974
sS'1994'
p1975
S'Poltergeist (1982)'
p1976
sS'1701'
p1977
S'Deconstructing Harry (1997)'
p1978
sS'1702'
p1979
S'Flubber (1997)'
p1980
sS'1394'
p1981
S'Raising Arizona (1987)'
p1982
sS'1704'
p1983
S'Good Will Hunting (1997)'
p1984
sS'1705'
p1985
S'Guy (1996)'
p1986
sS'1706'
p1987
S'Harlem River Drive (1996)'
p1988
sS'1707'
p1989
S'Home Alone 3 (1997)'
p1990
sS'1708'
p1991
S'Ill Gotten Gains (1997)'
p1992
sS'1393'
p1993
S'Jerry Maguire (1996)'
p1994
sS'1996'
p1995
S'Poltergeist III (1988)'
p1996
sS'1392'
p1997
S'Citizen Ruth (1996)'
p1998
sS'1391'
p1999
S'Mars Attacks! (1996)'
p2000
sS'3217'
p2001
S'Star Is Born, A (1937)'
p2002
sS'1390'
p2003
S'My Fellow Americans (1996)'
p2004
sS'3659'
p2005
S'Quatermass II (1957)'
p2006
sS'1128'
p2007
S'Fog, The (1980)'
p2008
sS'1129'
p2009
S'Escape from New York (1981)'
p2010
sS'3813'
p2011
S'Interiors (1978)'
p2012
sS'1120'
p2013
S'People vs. Larry Flynt, The (1996)'
p2014
sS'1121'
p2015
S'Glory Daze (1996)'
p2016
sS'1122'
p2017
S'Plutonium Circus (1995)'
p2018
sS'1123'
p2019
S'Perfect Candidate, A (1996)'
p2020
sS'1124'
p2021
S'On Golden Pond (1981)'
p2022
sS'1125'
p2023
S'Return of the Pink Panther, The (1974)'
p2024
sS'1126'
p2025
S'Drop Dead Fred (1991)'
p2026
sS'1127'
p2027
S'Abyss, The (1989)'
p2028
sS'2989'
p2029
S'For Your Eyes Only (1981)'
p2030
sS'2988'
p2031
S'Melvin and Howard (1980)'
p2032
sS'3029'
p2033
S'Nighthawks (1981)'
p2034
sS'3028'
p2035
S'Taming of the Shrew, The (1967)'
p2036
sS'2983'
p2037
S'Ipcress File, The (1965)'
p2038
sS'2982'
p2039
S'Guardian, The (1990)'
p2040
sS'2981'
p2041
S'Brother, Can You Spare a Dime? (1975)'
p2042
sS'2980'
p2043
S'Men Cry Bullets (1997)'
p2044
sS'2987'
p2045
S'Who Framed Roger Rabbit? (1988)'
p2046
sS'2986'
p2047
S'Robocop 2 (1990)'
p2048
sS'2985'
p2049
S'Robocop (1987)'
p2050
sS'2984'
p2051
S'On Any Sunday (1971)'
p2052
sS'524'
p2053
S'Rudy (1993)'
p2054
sS'525'
p2055
S'Saint of Fort Washington, The (1993)'
p2056
sS'526'
p2057
S'Savage Nights (Nuits fauves, Les) (1992)'
p2058
sS'527'
p2059
S"Schindler's List (1993)"
p2060
sS'520'
p2061
S'Robin Hood: Men in Tights (1993)'
p2062
sS'521'
p2063
S'Romeo Is Bleeding (1993)'
p2064
sS'522'
p2065
S'Romper Stomper (1992)'
p2066
sS'523'
p2067
S'Ruby in Paradise (1993)'
p2068
sS'1014'
p2069
S'Pollyanna (1960)'
p2070
sS'1015'
p2071
S'Homeward Bound: The Incredible Journey (1993)'
p2072
sS'1016'
p2073
S'Shaggy Dog, The (1959)'
p2074
sS'1017'
p2075
S'Swiss Family Robinson (1960)'
p2076
sS'528'
p2077
S'Scout, The (1994)'
p2078
sS'529'
p2079
S'Searching for Bobby Fischer (1993)'
p2080
sS'1012'
p2081
S'Old Yeller (1957)'
p2082
sS'1013'
p2083
S'Parent Trap, The (1961)'
p2084
sS'1234'
p2085
S'Sting, The (1973)'
p2086
sS'1235'
p2087
S'Harold and Maude (1971)'
p2088
sS'1236'
p2089
S'Trust (1990)'
p2090
sS'1237'
p2091
S'Seventh Seal, The (Sjunde inseglet, Det) (1957)'
p2092
sS'1230'
p2093
S'Annie Hall (1977)'
p2094
sS'1231'
p2095
S'Right Stuff, The (1983)'
p2096
sS'1232'
p2097
S'Stalker (1979)'
p2098
sS'1233'
p2099
S'Boat, The (Das Boot) (1981)'
p2100
sS'1238'
p2101
S'Local Hero (1983)'
p2102
sS'2526'
p2103
S'Meteor (1979)'
p2104
sS'3167'
p2105
S'Carnal Knowledge (1971)'
p2106
sS'438'
p2107
S'Cowboy Way, The (1994)'
p2108
sS'439'
p2109
S'Dangerous Game (1993)'
p2110
sS'436'
p2111
S'Color of Night (1994)'
p2112
sS'437'
p2113
S'Cops and Robbersons (1994)'
p2114
sS'434'
p2115
S'Cliffhanger (1993)'
p2116
sS'435'
p2117
S'Coneheads (1993)'
p2118
sS'432'
p2119
S"City Slickers II: The Legend of Curly's Gold (1994)"
p2120
sS'433'
p2121
S'Clean Slate (1994)'
p2122
sS'430'
p2123
S'Calendar Girl (1993)'
p2124
sS'431'
p2125
S"Carlito's Way (1993)"
p2126
sS'3809'
p2127
S'What About Bob? (1991)'
p2128
sS'3808'
p2129
S'Two Women (La Ciociara) (1961)'
p2130
sS'3805'
p2131
S'Knightriders (1981)'
p2132
sS'3804'
p2133
S'H.O.T.S. (1979)'
p2134
sS'3807'
p2135
S'Sinbad and the Eye of the Tiger (1977)'
p2136
sS'3806'
p2137
S"MacKenna's Gold (1969)"
p2138
sS'3801'
p2139
S'Anatomy of a Murder (1959)'
p2140
sS'3800'
p2141
S'Criminal Lovers (Les Amants Criminels) (1999)'
p2142
sS'3803'
p2143
S"Greaser's Palace (1972)"
p2144
sS'3802'
p2145
S'Freejack (1992)'
p2146
sS'2864'
p2147
S'Splendor (1999)'
p2148
sS'2481'
p2149
S'My Name Is Joe (1998)'
p2150
sS'2865'
p2151
S'Sugar Town (1999)'
p2152
sS'1967'
p2153
S'Labyrinth (1986)'
p2154
sS'2868'
p2155
S'Fright Night Part II (1989)'
p2156
sS'3162'
p2157
S'Simpatico (1999)'
p2158
sS'2869'
p2159
S'Separation, The (La S\xe9paration) (1994)'
p2160
sS'3082'
p2161
S'World Is Not Enough, The (1999)'
p2162
sS'1960'
p2163
S'Last Emperor, The (1987)'
p2164
sS'3314'
p2165
S'Big Trees, The (1952)'
p2166
sS'3077'
p2167
S'42 Up (1998)'
p2168
sS'3225'
p2169
S'Down to You (2000)'
p2170
sS'1961'
p2171
S'Rain Man (1988)'
p2172
sS'3160'
p2173
S'Magnolia (1999)'
p2174
sS'3060'
p2175
S'Commitments, The (1991)'
p2176
sS'3065'
p2177
S'Ten Benny (1997)'
p2178
sS'2465'
p2179
S'Deadly Friend (1986)'
p2180
sS'3064'
p2181
S'Poison Ivy: New Seduction (1997)'
p2182
sS'2466'
p2183
S'Belizaire the Cajun (1986)'
p2184
sS'3161'
p2185
S'Onegin (1999)'
p2186
sS'2467'
p2187
S'Name of the Rose, The (1986)'
p2188
sS'238'
p2189
S'Far From Home: The Adventures of Yellow Dog (1995)'
p2190
sS'239'
p2191
S'Goofy Movie, A (1995)'
p2192
sS'234'
p2193
S'Exit to Eden (1994)'
p2194
sS'235'
p2195
S'Ed Wood (1994)'
p2196
sS'236'
p2197
S'French Kiss (1995)'
p2198
sS'237'
p2199
S'Forget Paris (1995)'
p2200
sS'230'
p2201
S'Dolores Claiborne (1994)'
p2202
sS'231'
p2203
S'Dumb & Dumber (1994)'
p2204
sS'232'
p2205
S'Eat Drink Man Woman (1994)'
p2206
sS'233'
p2207
S'Exotica (1994)'
p2208
sS'3068'
p2209
S'Verdict, The (1982)'
p2210
sS'2462'
p2211
S'Return of the Texas Chainsaw Massacre, The (1994)'
p2212
sS'2228'
p2213
S'Mountain Eagle, The (1926)'
p2214
sS'2229'
p2215
S'Pleasure Garden, The (1925)'
p2216
sS'2226'
p2217
S'Ring, The (1927)'
p2218
sS'2227'
p2219
S'Lodger, The (1926)'
p2220
sS'2224'
p2221
S'Downhill (1927)'
p2222
sS'2225'
p2223
S'Easy Virtue (1927)'
p2224
sS'2222'
p2225
S'Champagne (1928)'
p2226
sS'2223'
p2227
S"Farmer's Wife, The (1928)"
p2228
sS'2220'
p2229
S'Manxman, The (1929)'
p2230
sS'2221'
p2231
S'Blackmail (1929)'
p2232
sS'1'
p2233
S'Toy Story (1995)'
p2234
sS'146'
p2235
S'Amazing Panda Adventure, The (1995)'
p2236
sS'147'
p2237
S'Basketball Diaries, The (1995)'
p2238
sS'144'
p2239
S'Brothers McMullen, The (1995)'
p2240
sS'145'
p2241
S'Bad Boys (1995)'
p2242
sS'142'
p2243
S'Shadows (Cienie) (1988)'
p2244
sS'143'
p2245
S'Gospa (1995)'
p2246
sS'140'
p2247
S'Up Close and Personal (1996)'
p2248
sS'141'
p2249
S'Birdcage, The (1996)'
p2250
sS'2468'
p2251
S"Jumpin' Jack Flash (1986)"
p2252
sS'148'
p2253
S'Awfully Big Adventure, An (1995)'
p2254
sS'149'
p2255
S'Amateur (1994)'
p2256
sS'3401'
p2257
S'Baby... Secret of the Lost Legend (1985)'
p2258
sS'2088'
p2259
S'Popeye (1980)'
p2260
sS'2089'
p2261
S'Rescuers Down Under, The (1990)'
p2262
sS'3400'
p2263
S"We're Back! A Dinosaur's Story (1993)"
p2264
sS'2082'
p2265
S'Mighty Ducks, The (1992)'
p2266
sS'2083'
p2267
S'Muppet Christmas Carol, The (1992)'
p2268
sS'2080'
p2269
S'Lady and the Tramp (1955)'
p2270
sS'2081'
p2271
S'Little Mermaid, The (1989)'
p2272
sS'2086'
p2273
S'One Magic Christmas (1985)'
p2274
sS'2087'
p2275
S'Peter Pan (1953)'
p2276
sS'2084'
p2277
S'Newsies (1992)'
p2278
sS'2085'
p2279
S'101 Dalmatians (1961)'
p2280
sS'3342'
p2281
S'Birdy (1984)'
p2282
sS'2538'
p2283
S'Dancemaker (1998)'
p2284
sS'2539'
p2285
S'Analyze This (1999)'
p2286
sS'3343'
p2287
S'And God Created Woman (1988)'
p2288
sS'2532'
p2289
S'Conquest of the Planet of the Apes (1972)'
p2290
sS'2533'
p2291
S'Escape from the Planet of the Apes (1971)'
p2292
sS'2530'
p2293
S'Beneath the Planet of the Apes (1970)'
p2294
sS'2531'
p2295
S'Battle for the Planet of the Apes (1973)'
p2296
sS'2536'
p2297
S"Concorde: Airport '79, The (1979)"
p2298
sS'2537'
p2299
S'Beyond the Poseidon Adventure (1979)'
p2300
sS'2534'
p2301
S'Avalanche (1978)'
p2302
sS'2535'
p2303
S'Earthquake (1974)'
p2304
sS'2712'
p2305
S'Eyes Wide Shut (1999)'
p2306
sS'2713'
p2307
S'Lake Placid (1999)'
p2308
sS'2710'
p2309
S'Blair Witch Project, The (1999)'
p2310
sS'2711'
p2311
S'My Life So Far (1999)'
p2312
sS'2716'
p2313
S'Ghostbusters (1984)'
p2314
sS'2717'
p2315
S'Ghostbusters II (1989)'
p2316
sS'2714'
p2317
S'Wood, The (1999)'
p2318
sS'2715'
p2319
S'Velocity of Gary, The (1998)'
p2320
sS'2718'
p2321
S'Drop Dead Gorgeous (1999)'
p2322
sS'2719'
p2323
S'Haunting, The (1999)'
p2324
sS'3347'
p2325
S'Never Cry Wolf (1983)'
p2326
sS'3409'
p2327
S'Final Destination (2000)'
p2328
sS'3344'
p2329
S'Blood Feast (1963)'
p2330
sS'3408'
p2331
S'Erin Brockovich (2000)'
p2332
sS'3345'
p2333
S'Charlie, the Lonesome Cougar (1967)'
p2334
sS'1832'
p2335
S"Heaven's Burning (1997)"
p2336
sS'1833'
p2337
S'Mercury Rising (1998)'
p2338
sS'1830'
p2339
S'Follow the Bitch (1998)'
p2340
sS'1831'
p2341
S'Lost in Space (1998)'
p2342
sS'1836'
p2343
S'Last Days of Disco, The (1998)'
p2344
sS'1837'
p2345
S'Odd Couple II, The (1998)'
p2346
sS'1834'
p2347
S'Spanish Prisoner, The (1997)'
p2348
sS'1835'
p2349
S'City of Angels (1998)'
p2350
sS'3795'
p2351
S'Five Senses, The (1999)'
p2352
sS'3090'
p2353
S'Matewan (1987)'
p2354
sS'3797'
p2355
S'In Crowd, The (2000)'
p2356
sS'1839'
p2357
S'My Giant (1998)'
p2358
sS'3791'
p2359
S'Footloose (1984)'
p2360
sS'3790'
p2361
S'Groove (2000)'
p2362
sS'3793'
p2363
S'X-Men (2000)'
p2364
sS'3792'
p2365
S'Duel in the Sun (1946)'
p2366
sS'2154'
p2367
S'How Stella Got Her Groove Back (1998)'
p2368
sS'2155'
p2369
S'Slums of Beverly Hills, The (1998)'
p2370
sS'939'
p2371
S'Reluctant Debutante, The (1958)'
p2372
sS'938'
p2373
S'Gigi (1958)'
p2374
sS'2150'
p2375
S'Gods Must Be Crazy, The (1980)'
p2376
sS'2151'
p2377
S'Gods Must Be Crazy II, The (1989)'
p2378
sS'2152'
p2379
S'Air Bud: Golden Receiver (1998)'
p2380
sS'2153'
p2381
S'Avengers, The (1998)'
p2382
sS'933'
p2383
S'To Catch a Thief (1955)'
p2384
sS'932'
p2385
S'Affair to Remember, An (1957)'
p2386
sS'931'
p2387
S'Spellbound (1945)'
p2388
sS'930'
p2389
S'Notorious (1946)'
p2390
sS'937'
p2391
S'Love in the Afternoon (1957)'
p2392
sS'936'
p2393
S'Ninotchka (1939)'
p2394
sS'935'
p2395
S'Band Wagon, The (1953)'
p2396
sS'934'
p2397
S'Father of the Bride (1950)'
p2398
sS'3091'
p2399
S'Kagemusha (1980)'
p2400
sS'1955'
p2401
S'Kramer Vs. Kramer (1979)'
p2402
sS'1954'
p2403
S'Rocky (1976)'
p2404
sS'1957'
p2405
S'Chariots of Fire (1981)'
p2406
sS'1956'
p2407
S'Ordinary People (1980)'
p2408
sS'1951'
p2409
S'Oliver! (1968)'
p2410
sS'1950'
p2411
S'In the Heat of the Night (1967)'
p2412
sS'1953'
p2413
S'French Connection, The (1971)'
p2414
sS'1952'
p2415
S'Midnight Cowboy (1969)'
p2416
sS'1959'
p2417
S'Out of Africa (1985)'
p2418
sS'1958'
p2419
S'Terms of Endearment (1983)'
p2420
sS'3249'
p2421
S'Hand That Rocks the Cradle, The (1992)'
p2422
sS'3248'
p2423
S'Sister Act 2: Back in the Habit (1993)'
p2424
sS'3096'
p2425
S'My Man Godfrey (1957)'
p2426
sS'3243'
p2427
S'Encino Man (1992)'
p2428
sS'3242'
p2429
S'Santitos (1997)'
p2430
sS'3241'
p2431
S'Cup, The (Ph\xf6rpa) (1999)'
p2432
sS'3240'
p2433
S'Big Tease, The (1999)'
p2434
sS'3247'
p2435
S'Sister Act (1992)'
p2436
sS'3246'
p2437
S'Malcolm X (1992)'
p2438
sS'3245'
p2439
S'I Am Cuba (Soy Cuba/Ya Kuba) (1964)'
p2440
sS'3244'
p2441
S'Goodbye Girl, The (1977)'
p2442
sS'829'
p2443
S"Joe's Apartment (1996)"
p2444
sS'828'
p2445
S'Adventures of Pinocchio, The (1996)'
p2446
sS'825'
p2447
S'Echte Kerle (1996)'
p2448
sS'824'
p2449
S'Kaspar Hauser (1993)'
p2450
sS'827'
p2451
S'Convent, The (Convento, O) (1995)'
p2452
sS'826'
p2453
S'Diebinnen (1995)'
p2454
sS'821'
p2455
S'Crude Oasis, The (1995)'
p2456
sS'820'
p2457
S'Death in the Garden (Mort en ce jardin, La) (1956)'
p2458
sS'823'
p2459
S'Collectionneuse, La (1967)'
p2460
sS'822'
p2461
S'Hedd Wyn (1992)'
p2462
sS'3097'
p2463
S'Shop Around the Corner, The (1940)'
p2464
sS'2409'
p2465
S'Rocky II (1979)'
p2466
sS'3227'
p2467
S'Not Love, Just Frenzy (M\xe1s que amor, frenes\xed) (1996)'
p2468
sS'1483'
p2469
S'Crash (1996)'
p2470
sS'1482'
p2471
S'Van, The (1996)'
p2472
sS'1480'
p2473
S"Smilla's Sense of Snow (1997)"
p2474
sS'1487'
p2475
S'Selena (1997)'
p2476
sS'1486'
p2477
S'Quiet Room, The (1996)'
p2478
sS'1485'
p2479
S'Liar Liar (1997)'
p2480
sS'1484'
p2481
S'Daytrippers, The (1996)'
p2482
sS'3306'
p2483
S'Circus, The (1928)'
p2484
sS'3307'
p2485
S'City Lights (1931)'
p2486
sS'1489'
p2487
S"Cats Don't Dance (1997)"
p2488
sS'1488'
p2489
S"Devil's Own, The (1997)"
p2490
sS'3302'
p2491
S'Beautiful People (1999)'
p2492
sS'3303'
p2493
S'Black Tar Heroin: The Dark End of the Street (1999)'
p2494
sS'3300'
p2495
S'Pitch Black (2000)'
p2496
sS'3301'
p2497
S'Whole Nine Yards, The (2000)'
p2498
sS'797'
p2499
S'Old Lady Who Walked in the Sea, The (Vieille qui marchait dans la mer, La) (1991)'
p2500
sS'796'
p2501
S'Very Natural Thing, A (1974)'
p2502
sS'795'
p2503
S'Somebody to Love (1994)'
p2504
sS'794'
p2505
S'Midnight Dancers (Sibak) (1994)'
p2506
sS'793'
p2507
S"My Life and Times With Antonin Artaud (En compagnie d'Antonin Artaud) (1993)"
p2508
sS'792'
p2509
S'Hungarian Fairy Tale, A (1987)'
p2510
sS'791'
p2511
S'Last Klezmer: Leopold Kozlowski, His Life and Music, The (1995)'
p2512
sS'790'
p2513
S'An Unforgettable Summer (1994)'
p2514
sS'3050'
p2515
S'Light It Up (1999)'
p2516
sS'1719'
p2517
S'Sweet Hereafter, The (1997)'
p2518
sS'1718'
p2519
S'Stranger in the House (1997)'
p2520
sS'2413'
p2521
S'Clue (1985)'
p2522
sS'799'
p2523
S'Frighteners, The (1996)'
p2524
sS'798'
p2525
S'Daylight (1996)'
p2526
sS'1270'
p2527
S'Back to the Future (1985)'
p2528
sS'2412'
p2529
S'Rocky V (1990)'
p2530
sS'1271'
p2531
S'Fried Green Tomatoes (1991)'
p2532
sS'2415'
p2533
S'Violets Are Blue... (1986)'
p2534
sS'1272'
p2535
S'Patton (1970)'
p2536
sS'2414'
p2537
S'Young Sherlock Holmes (1985)'
p2538
sS'1139'
p2539
S'Everything Relative (1996)'
p2540
sS'1138'
p2541
S'Dadetown (1995)'
p2542
sS'2417'
p2543
S'Heartburn (1986)'
p2544
sS'3051'
p2545
S'Anywhere But Here (1999)'
p2546
sS'1133'
p2547
S'Talking About Sex (1994)'
p2548
sS'1132'
p2549
S'Manon of the Spring (Manon des sources) (1986)'
p2550
sS'1131'
p2551
S'Jean de Florette (1986)'
p2552
sS'1130'
p2553
S'Howling, The (1980)'
p2554
sS'1137'
p2555
S'Hustler White (1996)'
p2556
sS'1136'
p2557
S'Monty Python and the Holy Grail (1974)'
p2558
sS'1135'
p2559
S'Private Benjamin (1980)'
p2560
sS'1134'
p2561
S'Johnny 100 Pesos (1993)'
p2562
sS'2419'
p2563
S'Extremities (1986)'
p2564
sS'1276'
p2565
S'Cool Hand Luke (1967)'
p2566
sS'2418'
p2567
S'Nothing in Common (1986)'
p2568
sS'1277'
p2569
S'Cyrano de Bergerac (1990)'
p2570
sS'2790'
p2571
S'Final Conflict, The (a.k.a. Omen III: The Final Conflict) (1981)'
p2572
sS'3018'
p2573
S'Re-Animator (1985)'
p2574
sS'2791'
p2575
S'Airplane! (1980)'
p2576
sS'3012'
p2577
S'Battling Butler (1926)'
p2578
sS'2796'
p2579
S'Funny Farm (1988)'
p2580
sS'3010'
p2581
S'Rosetta (1999)'
p2582
sS'2793'
p2583
S'American Werewolf in Paris, An (1997)'
p2584
sS'3016'
p2585
S'Creepshow (1982)'
p2586
sS'3017'
p2587
S'Creepshow 2 (1987)'
p2588
sS'3014'
p2589
S"Bustin' Loose (1981)"
p2590
sS'2797'
p2591
S'Big (1988)'
p2592
sS'519'
p2593
S'Robocop 3 (1993)'
p2594
sS'518'
p2595
S'Road to Wellville, The (1994)'
p2596
sS'2149'
p2597
S'House II: The Second Story (1987)'
p2598
sS'1009'
p2599
S'Escape to Witch Mountain (1975)'
p2600
sS'1008'
p2601
S'Davy Crockett, King of the Wild Frontier (1955)'
p2602
sS'1007'
p2603
S'Apple Dumpling Gang, The (1975)'
p2604
sS'1006'
p2605
S'Chamber, The (1996)'
p2606
sS'1005'
p2607
S'D3: The Mighty Ducks (1996)'
p2608
sS'1004'
p2609
S'Glimmer Man, The (1996)'
p2610
sS'515'
p2611
S'Remains of the Day, The (1993)'
p2612
sS'1002'
p2613
S"Ed's Next Move (1996)"
p2614
sS'517'
p2615
S'Rising Sun (1993)'
p2616
sS'1000'
p2617
S'Curdled (1996)'
p2618
sS'623'
p2619
S'Modern Affair, A (1995)'
p2620
sS'1226'
p2621
S'Quiet Man, The (1952)'
p2622
sS'1225'
p2623
S'Amadeus (1984)'
p2624
sS'620'
p2625
S'Scream of Stone (Schrei aus Stein) (1991)'
p2626
sS'627'
p2627
S'Last Supper, The (1995)'
p2628
sS'626'
p2629
S'Thin Line Between Love and Hate, A (1996)'
p2630
sS'625'
p2631
S'Asfour Stah (1990)'
p2632
sS'624'
p2633
S'Condition Red (1995)'
p2634
sS'629'
p2635
S'Rude (1995)'
p2636
sS'628'
p2637
S'Primal Fear (1996)'
p2638
sS'1228'
p2639
S'Raging Bull (1980)'
p2640
sS'3279'
p2641
S'Knockout (1999)'
p2642
sS'1535'
p2643
S'Love! Valour! Compassion! (1997)'
p2644
sS'2882'
p2645
S'Jakob the Liar (1999)'
p2646
sS'2883'
p2647
S'Mumford (1999)'
p2648
sS'2880'
p2649
S'Operation Condor 2 (Longxiong hudi) (1990)'
p2650
sS'2881'
p2651
S'Double Jeopardy (1999)'
p2652
sS'2886'
p2653
S'Adventures of Elmo in Grouchland, The (1999)'
p2654
sS'2887'
p2655
S'Simon Sez (1999)'
p2656
sS'2884'
p2657
S'Dog Park (1998)'
p2658
sS'2885'
p2659
S'Guinevere (1999)'
p2660
sS'2888'
p2661
S'Drive Me Crazy (1999)'
p2662
sS'2889'
p2663
S'Mystery, Alaska (1999)'
p2664
sS'3662'
p2665
S"Puppet Master III: Toulon's Revenge (1991)"
p2666
sS'2'
p2667
S'Jumanji (1995)'
p2668
sS'3878'
p2669
S'X: The Unknown (1956)'
p2670
sS'3879'
p2671
S'Art of War, The (2000)'
p2672
sS'3196'
p2673
S'Stalag 17 (1953)'
p2674
sS'3870'
p2675
S'Our Town (1940)'
p2676
sS'3871'
p2677
S'Shane (1953)'
p2678
sS'3872'
p2679
S'Suddenly, Last Summer (1959)'
p2680
sS'3873'
p2681
S'Cat Ballou (1965)'
p2682
sS'3874'
p2683
S'Couch in New York, A (1996)'
p2684
sS'3875'
p2685
S'Devil Rides Out, The (1968)'
p2686
sS'3876'
p2687
S'Jerry & Tom (1998)'
p2688
sS'3877'
p2689
S'Supergirl (1984)'
p2690
sS'1286'
p2691
S'Somewhere in Time (1980)'
p2692
sS'11'
p2693
S'American President, The (1995)'
p2694
sS'10'
p2695
S'GoldenEye (1995)'
p2696
sS'13'
p2697
S'Balto (1995)'
p2698
sS'12'
p2699
S'Dracula: Dead and Loving It (1995)'
p2700
sS'15'
p2701
S'Cutthroat Island (1995)'
p2702
sS'14'
p2703
S'Nixon (1995)'
p2704
sS'17'
p2705
S'Sense and Sensibility (1995)'
p2706
sS'16'
p2707
S'Casino (1995)'
p2708
sS'19'
p2709
S'Ace Ventura: When Nature Calls (1995)'
p2710
sS'18'
p2711
S'Four Rooms (1995)'
p2712
sS'3274'
p2713
S'Single White Female (1992)'
p2714
sS'3275'
p2715
S'Boondock Saints, The (1999)'
p2716
sS'2382'
p2717
S'Police Academy 5: Assignment: Miami Beach (1988)'
p2718
sS'3272'
p2719
S'Bad Lieutenant (1992)'
p2720
sS'3194'
p2721
S'Way We Were, The (1973)'
p2722
sS'3904'
p2723
S'Uninvited Guest, An (2000)'
p2724
sS'3905'
p2725
S'Specials, The (2000)'
p2726
sS'3906'
p2727
S'Under Suspicion (2000)'
p2728
sS'3907'
p2729
S'Prince of Central Park, The (1999)'
p2730
sS'3900'
p2731
S'Crime and Punishment in Suburbia (2000)'
p2732
sS'3270'
p2733
S'Cutting Edge, The (1992)'
p2734
sS'3902'
p2735
S'Goya in Bordeaux (Goya en Bodeos) (1999)'
p2736
sS'3903'
p2737
S'Urbania (2000)'
p2738
sS'3027'
p2739
S'Slaughterhouse 2 (1988)'
p2740
sS'3271'
p2741
S'Of Mice and Men (1992)'
p2742
sS'3908'
p2743
S'Urban Legends: Final Cut (2000)'
p2744
sS'3909'
p2745
S'Woman on Top (2000)'
p2746
sS'3600'
p2747
S'Blue Hawaii (1961)'
p2748
sS'3111'
p2749
S'Places in the Heart (1984)'
p2750
sS'3193'
p2751
S'Creature (1999)'
p2752
sS'2742'
p2753
S'M\xe9nage (Tenue de soir\xe9e) (1986)'
p2754
sS'1534'
p2755
S'Bonheur, Le (1965)'
p2756
sS'3278'
p2757
S'Gendernauts (1999)'
p2758
sS'3192'
p2759
S'Terrorist, The (Malli) (1998)'
p2760
sS'201'
p2761
S'Three Wishes (1995)'
p2762
sS'200'
p2763
S'Tie That Binds, The (1995)'
p2764
sS'203'
p2765
S'To Wong Foo, Thanks for Everything! Julie Newmar (1995)'
p2766
sS'202'
p2767
S'Total Eclipse (1995)'
p2768
sS'205'
p2769
S'Unstrung Heroes (1995)'
p2770
sS'204'
p2771
S'Under Siege 2: Dark Territory (1995)'
p2772
sS'207'
p2773
S'Walk in the Clouds, A (1995)'
p2774
sS'206'
p2775
S'Unzipped (1995)'
p2776
sS'209'
p2777
S"White Man's Burden (1995)"
p2778
sS'208'
p2779
S'Waterworld (1995)'
p2780
sS'2745'
p2781
S'Mission, The (1986)'
p2782
sS'3476'
p2783
S"Jacob's Ladder (1990)"
p2784
sS'1573'
p2785
S'Face/Off (1997)'
p2786
sS'3477'
p2787
S'Empire Records (1995)'
p2788
sS'1572'
p2789
S'Contempt (Le M\xe9pris) (1963)'
p2790
sS'3191'
p2791
S'Quarry, The (1998)'
p2792
sS'1571'
p2793
S'When the Cats Away (Chacun cherche son chat) (1996)'
p2794
sS'3471'
p2795
S'Close Encounters of the Third Kind (1977)'
p2796
sS'2239'
p2797
S"Swept Away (Travolti da un insolito destino nell'azzurro mare d'Agosto) (1975)"
p2798
sS'2238'
p2799
S'Seven Beauties (Pasqualino Settebellezze) (1976)'
p2800
sS'1570'
p2801
S'Tetsuo II: Body Hammer (1992)'
p2802
sS'3472'
p2803
S'Horror Hotel (a.k.a. The City of the Dead) (1960)'
p2804
sS'2231'
p2805
S'Rounders (1998)'
p2806
sS'1577'
p2807
S'Mondo (1996)'
p2808
sS'2233'
p2809
S'Digging to China (1998)'
p2810
sS'2232'
p2811
S'Cube (1997)'
p2812
sS'2235'
p2813
S"One Man's Hero (1999)"
p2814
sS'2234'
p2815
S"Let's Talk About Sex (1998)"
p2816
sS'2237'
p2817
S'Without Limits (1998)'
p2818
sS'2236'
p2819
S'Simon Birch (1998)'
p2820
sS'1575'
p2821
S'Gabbeh (1996)'
p2822
sS'3190'
p2823
S'Supernova (2000)'
p2824
sS'1574'
p2825
S'Fall (1997)'
p2826
sS'2185'
p2827
S'I Confess (1953)'
p2828
sS'3498'
p2829
S'Midnight Express (1978)'
p2830
sS'3499'
p2831
S'Misery (1990)'
p2832
sS'3496'
p2833
S'Madame Sousatzka (1988)'
p2834
sS'3497'
p2835
S'Max Dugan Returns (1983)'
p2836
sS'3494'
p2837
S'True Grit (1969)'
p2838
sS'2184'
p2839
S'Trouble with Harry, The (1955)'
p2840
sS'3492'
p2841
S'Son of the Sheik, The (1926)'
p2842
sS'3493'
p2843
S'Torso (Corpi Presentano Tracce di Violenza Carnale) (1973)'
p2844
sS'3490'
p2845
S'Horror Express (1972)'
p2846
sS'3491'
p2847
S'My Chauffeur (1986)'
p2848
sS'2095'
p2849
S'Shaggy D.A., The (1976)'
p2850
sS'2094'
p2851
S'Rocketeer, The (1991)'
p2852
sS'2097'
p2853
S'Something Wicked This Way Comes (1983)'
p2854
sS'2096'
p2855
S'Sleeping Beauty (1959)'
p2856
sS'2091'
p2857
S'Return from Witch Mountain (1978)'
p2858
sS'2090'
p2859
S'Rescuers, The (1977)'
p2860
sS'2093'
p2861
S'Return to Oz (1985)'
p2862
sS'2092'
p2863
S'Return of Jafar, The (1993)'
p2864
sS'3654'
p2865
S'Guns of Navarone, The (1961)'
p2866
sS'3655'
p2867
S'Blow-Out (La Grande Bouffe) (1973)'
p2868
sS'3656'
p2869
S'Lured (1947)'
p2870
sS'3657'
p2871
S'Pandora and the Flying Dutchman (1951)'
p2872
sS'2099'
p2873
S'Song of the South (1946)'
p2874
sS'2098'
p2875
S'Son of Flubber (1963)'
p2876
sS'3652'
p2877
S'City of the Living Dead (Paura nella citt\xe0 dei morti viventi) (1980)'
p2878
sS'3653'
p2879
S'Endless Summer, The (1966)'
p2880
sS'2525'
p2881
S'Alligator (1980)'
p2882
sS'2524'
p2883
S'Towering Inferno, The (1974)'
p2884
sS'2527'
p2885
S'Westworld (1973)'
p2886
sS'2188'
p2887
S'54 (1998)'
p2888
sS'2521'
p2889
S'Airport 1975 (1974)'
p2890
sS'2520'
p2891
S'Airport (1970)'
p2892
sS'2523'
p2893
S'Rollercoaster (1977)'
p2894
sS'2522'
p2895
S"Airport '77 (1977)"
p2896
sS'2529'
p2897
S'Planet of the Apes (1968)'
p2898
sS'2528'
p2899
S"Logan's Run (1976)"
p2900
sS'2709'
p2901
S'Muppets From Space (1999)'
p2902
sS'2708'
p2903
S"Autumn Tale, An (Conte d'automne) (1998)"
p2904
sS'2705'
p2905
S'Late August, Early September (Fin ao\xfbt, d\xe9but septembre) (1998)'
p2906
sS'2704'
p2907
S'Lovers on the Bridge, The (Les Amants du Pont-Neuf) (1991)'
p2908
sS'2707'
p2909
S'Arlington Road (1999)'
p2910
sS'2706'
p2911
S'American Pie (1999)'
p2912
sS'2701'
p2913
S'Wild Wild West (1999)'
p2914
sS'2700'
p2915
S'South Park: Bigger, Longer and Uncut (1999)'
p2916
sS'2703'
p2917
S'Broken Vessels (1998)'
p2918
sS'2702'
p2919
S'Summer of Sam (1999)'
p2920
sS'1829'
p2921
S'Chinese Box (1997)'
p2922
sS'2951'
p2923
S'Fistful of Dollars, A (1964)'
p2924
sS'1825'
p2925
S"Player's Club, The (1998)"
p2926
sS'1824'
p2927
S'Homegrown (1998)'
p2928
sS'1827'
p2929
S'Big One, The (1997)'
p2930
sS'1826'
p2931
S"Barney's Great Adventure (1998)"
p2932
sS'1821'
p2933
S'Object of My Affection, The (1998)'
p2934
sS'1820'
p2935
S'Proposition, The (1998)'
p2936
sS'1822'
p2937
S'Meet the Deedles (1998)'
p2938
sS'928'
p2939
S'Rebecca (1940)'
p2940
sS'929'
p2941
S'Foreign Correspondent (1940)'
p2942
sS'2145'
p2943
S'Pretty in Pink (1986)'
p2944
sS'2144'
p2945
S'Sixteen Candles (1984)'
p2946
sS'2143'
p2947
S'Legend (1985)'
p2948
sS'2142'
p2949
S'American Tail: Fievel Goes West, An (1991)'
p2950
sS'2141'
p2951
S'American Tail, An (1986)'
p2952
sS'2140'
p2953
S'Dark Crystal, The (1982)'
p2954
sS'920'
p2955
S'Gone with the Wind (1939)'
p2956
sS'921'
p2957
S'My Favorite Year (1982)'
p2958
sS'922'
p2959
S'Sunset Blvd. (a.k.a. Sunset Boulevard) (1950)'
p2960
sS'923'
p2961
S'Citizen Kane (1941)'
p2962
sS'924'
p2963
S'2001: A Space Odyssey (1968)'
p2964
sS'925'
p2965
S'Golden Earrings (1947)'
p2966
sS'926'
p2967
S'All About Eve (1950)'
p2968
sS'927'
p2969
S'Women, The (1939)'
p2970
sS'3669'
p2971
S'Stay Tuned (1992)'
p2972
sS'3950'
p2973
S'Tigerland (2000)'
p2974
sS'2411'
p2975
S'Rocky IV (1985)'
p2976
sS'1920'
p2977
S'Small Soldiers (1998)'
p2978
sS'1921'
p2979
S'Pi (1998)'
p2980
sS'1922'
p2981
S'Whatever (1998)'
p2982
sS'1923'
p2983
S"There's Something About Mary (1998)"
p2984
sS'1924'
p2985
S'Plan 9 from Outer Space (1958)'
p2986
sS'1925'
p2987
S'Wings (1927)'
p2988
sS'1926'
p2989
S'Broadway Melody, The (1929)'
p2990
sS'1927'
p2991
S'All Quiet on the Western Front (1930)'
p2992
sS'1928'
p2993
S'Cimarron (1931)'
p2994
sS'1929'
p2995
S'Grand Hotel (1932)'
p2996
sS'3069'
p2997
S'Effect of Gamma Rays on Man-in-the-Moon Marigolds, The (1972)'
p2998
sS'3145'
p2999
S'Cradle Will Rock, The (1999)'
p3000
sS'832'
p3001
S'Ransom (1996)'
p3002
sS'833'
p3003
S'High School High (1996)'
p3004
sS'830'
p3005
S'First Wives Club, The (1996)'
p3006
sS'831'
p3007
S'Stonewall (1995)'
p3008
sS'836'
p3009
S'Chain Reaction (1996)'
p3010
sS'837'
p3011
S'Matilda (1996)'
p3012
sS'834'
p3013
S'Phat Beach (1996)'
p3014
sS'835'
p3015
S'Foxfire (1996)'
p3016
sS'838'
p3017
S'Emma (1996)'
p3018
sS'839'
p3019
S'Crow: City of Angels, The (1996)'
p3020
sS'3478'
p3021
S'Bamba, La (1987)'
p3022
sS'3479'
p3023
S'Ladyhawke (1985)'
p3024
sS'3'
p3025
S'Grumpier Old Men (1995)'
p3026
sS'1986'
p3027
S'Halloween 5: The Revenge of Michael Myers (1989)'
p3028
sS'3332'
p3029
S'Legend of Lobo, The (1962)'
p3030
sS'3199'
p3031
S'Pal Joey (1957)'
p3032
sS'3941'
p3033
S'Sorority House Massacre (1986)'
p3034
sS'3319'
p3035
S'Judy Berlin (1999)'
p3036
sS'3318'
p3037
S'Deterrence (1998)'
p3038
sS'2511'
p3039
S'Long Goodbye, The (1973)'
p3040
sS'3311'
p3041
S'Man from Laramie, The (1955)'
p3042
sS'3310'
p3043
S'Kid, The (1921)'
p3044
sS'3313'
p3045
S'Class Reunion (1982)'
p3046
sS'3312'
p3047
S'McCullochs, The (1975)'
p3048
sS'3315'
p3049
S'Happy Go Lovely (1951)'
p3050
sS'1987'
p3051
S'Prom Night (1980)'
p3052
sS'1532'
p3053
S'Sprung (1997)'
p3054
sS'3316'
p3055
S'Reindeer Games (2000)'
p3056
sS'784'
p3057
S'Cable Guy, The (1996)'
p3058
sS'785'
p3059
S'Kingpin (1996)'
p3060
sS'786'
p3061
S'Eraser (1996)'
p3062
sS'787'
p3063
S'Gate of Heavenly Peace, The (1995)'
p3064
sS'780'
p3065
S'Independence Day (ID4) (1996)'
p3066
sS'781'
p3067
S'Stealing Beauty (1996)'
p3068
sS'782'
p3069
S'Fan, The (1996)'
p3070
sS'783'
p3071
S'Hunchback of Notre Dame, The (1996)'
p3072
sS'1726'
p3073
S'Postman, The (1997)'
p3074
sS'1727'
p3075
S'Horse Whisperer, The (1998)'
p3076
sS'1724'
p3077
S'Full Speed (1996)'
p3078
sS'1725'
p3079
S'Education of Little Tree, The (1997)'
p3080
sS'788'
p3081
S'Nutty Professor, The (1996)'
p3082
sS'789'
p3083
S'I, Worst of All (Yo, la peor de todas) (1990)'
p3084
sS'1720'
p3085
S'Time Tracers (1995)'
p3086
sS'1721'
p3087
S'Titanic (1997)'
p3088
sS'3361'
p3089
S'Bull Durham (1988)'
p3090
sS'2355'
p3091
S"Bug's Life, A (1998)"
p3092
sS'3330'
p3093
S'Splendor in the Grass (1961)'
p3094
sS'2439'
p3095
S'Affliction (1997)'
p3096
sS'60'
p3097
S'Indian in the Cupboard, The (1995)'
p3098
sS'61'
p3099
S'Eye for an Eye (1996)'
p3100
sS'62'
p3101
S"Mr. Holland's Opus (1995)"
p3102
sS'63'
p3103
S"Don't Be a Menace to South Central While Drinking Your Juice in the Hood (1996)"
p3104
sS'64'
p3105
S'Two if by Sea (1996)'
p3106
sS'65'
p3107
S'Bio-Dome (1996)'
p3108
sS'66'
p3109
S'Lawnmower Man 2: Beyond Cyberspace (1996)'
p3110
sS'67'
p3111
S'Two Bits (1995)'
p3112
sS'68'
p3113
S'French Twist (Gazon maudit) (1995)'
p3114
sS'69'
p3115
S'Friday (1995)'
p3116
sS'3009'
p3117
S'Portraits Chinois (1996)'
p3118
sS'3008'
p3119
S'Last Night (1998)'
p3120
sS'1371'
p3121
S'Star Trek: The Motion Picture (1979)'
p3122
sS'1588'
p3123
S'George of the Jungle (1997)'
p3124
sS'1589'
p3125
S'Cop Land (1997)'
p3126
sS'1370'
p3127
S'Die Hard 2 (1990)'
p3128
sS'1582'
p3129
S'Wild America (1997)'
p3130
sS'1583'
p3131
S'Simple Wish, A (1997)'
p3132
sS'1580'
p3133
S'Men in Black (1997)'
p3134
sS'1581'
p3135
S'Out to Sea (1997)'
p3136
sS'1586'
p3137
S'G.I. Jane (1997)'
p3138
sS'405'
p3139
S'Highlander III: The Sorcerer (1994)'
p3140
sS'1584'
p3141
S'Contact (1997)'
p3142
sS'1585'
p3143
S'Love Serenade (1996)'
p3144
sS'2433'
p3145
S'Civil Action, A (1998)'
p3146
sS'1038'
p3147
S'Unhook the Stars (1996)'
p3148
sS'404'
p3149
S'Brother Minister: The Assassination of Malcolm X (1994)'
p3150
sS'3317'
p3151
S'Wonder Boys (2000)'
p3152
sS'508'
p3153
S'Philadelphia (1993)'
p3154
sS'509'
p3155
S'Piano, The (1993)'
p3156
sS'1032'
p3157
S'Alice in Wonderland (1951)'
p3158
sS'403'
p3159
S'Two Crimes (1995)'
p3160
sS'1030'
p3161
S"Pete's Dragon (1977)"
p3162
sS'505'
p3163
S'North (1994)'
p3164
sS'502'
p3165
S'Next Karate Kid, The (1994)'
p3166
sS'503'
p3167
S'New Age, The (1994)'
p3168
sS'500'
p3169
S'Mrs. Doubtfire (1993)'
p3170
sS'402'
p3171
S'Open Season (1996)'
p3172
sS'1212'
p3173
S'Third Man, The (1949)'
p3174
sS'1213'
p3175
S'GoodFellas (1990)'
p3176
sS'632'
p3177
S'Land and Freedom (Tierra y libertad) (1995)'
p3178
sS'633'
p3179
S'Denise Calls Up (1995)'
p3180
sS'1216'
p3181
S'Big Blue, The (Le Grand Bleu) (1988)'
p3182
sS'401'
p3183
S'Mirage (1995)'
p3184
sS'636'
p3185
S'Frisk (1995)'
p3186
sS'637'
p3187
S'Sgt. Bilko (1996)'
p3188
sS'638'
p3189
S'Jack and Sarah (1995)'
p3190
sS'639'
p3191
S'Girl 6 (1996)'
p3192
sS'1218'
p3193
S'Killer, The (Die xue shuang xiong) (1989)'
p3194
sS'1376'
p3195
S'Star Trek IV: The Voyage Home (1986)'
p3196
sS'3024'
p3197
S'Piranha (1978)'
p3198
sS'2416'
p3199
S'Back to School (1986)'
p3200
sS'3335'
p3201
S'Jail Bait (1954)'
p3202
sS'465'
p3203
S'Heaven & Earth (1993)'
p3204
sS'2899'
p3205
S"Gulliver's Travels (1939)"
p3206
sS'1728'
p3207
S'Winter Guest, The (1997)'
p3208
sS'3075'
p3209
S'Repulsion (1965)'
p3210
sS'2895'
p3211
S'Napoleon and Samantha (1972)'
p3212
sS'2894'
p3213
S'Romance (1999)'
p3214
sS'2897'
p3215
S'And the Ship Sails On (E la nave va) (1984)'
p3216
sS'1729'
p3217
S'Jackie Brown (1997)'
p3218
sS'2891'
p3219
S'Happy, Texas (1999)'
p3220
sS'2890'
p3221
S'Three Kings (1999)'
p3222
sS'2893'
p3223
S'Plunkett & MaCleane (1999)'
p3224
sS'2892'
p3225
S'New Rose Hotel (1998)'
p3226
sS'1106'
p3227
S'Leopard Son, The (1996)'
p3228
sS'1107'
p3229
S'Loser (1991)'
p3230
sS'1104'
p3231
S'Streetcar Named Desire, A (1951)'
p3232
sS'1105'
p3233
S'Children of the Corn IV: The Gathering (1996)'
p3234
sS'1102'
p3235
S'American Strays (1996)'
p3236
sS'1103'
p3237
S'Rebel Without a Cause (1955)'
p3238
sS'1100'
p3239
S'Days of Thunder (1990)'
p3240
sS'1101'
p3241
S'Top Gun (1986)'
p3242
sS'3334'
p3243
S'Key Largo (1948)'
p3244
sS'1458'
p3245
S'Touch (1997)'
p3246
sS'1459'
p3247
S'Absolute Power (1997)'
p3248
sS'1108'
p3249
S'Prerokbe Ognja (1995)'
p3250
sS'1109'
p3251
S"Charm's Incidents (1996)"
p3252
sS'3862'
p3253
S'About Adam (2000)'
p3254
sS'3869'
p3255
S'Naked Gun 2 1/2: The Smell of Fear, The (1991)'
p3256
sS'3868'
p3257
S'Naked Gun: From the Files of Police Squad!, The (1988)'
p3258
sS'3863'
p3259
S'Cell, The (2000)'
p3260
sS'1722'
p3261
S'Tomorrow Never Dies (1997)'
p3262
sS'3861'
p3263
S'Replacements, The (2000)'
p3264
sS'3860'
p3265
S'Opportunists, The (1999)'
p3266
sS'3867'
p3267
S"All the Rage (a.k.a. It's the Rage) (1999)"
p3268
sS'3866'
p3269
S'Sunset Strip (2000)'
p3270
sS'3865'
p3271
S'Original Kings of Comedy, The (2000)'
p3272
sS'1723'
p3273
S'Twisted (1996)'
p3274
sS'3737'
p3275
S'Lonely Are the Brave (1962)'
p3276
sS'3837'
p3277
S'Phantasm II (1988)'
p3278
sS'3736'
p3279
S'Big Carnival, The (1951)'
p3280
sS'3735'
p3281
S'Serpico (1973)'
p3282
sS'3831'
p3283
S'Saving Grace (2000)'
p3284
sS'1897'
p3285
S'High Art (1998)'
p3286
sS'3733'
p3287
S'Paper Chase, The (1973)'
p3288
sS'1891'
p3289
S'Ugly, The (1997)'
p3290
sS'3731'
p3291
S"Cutter's Way (1981)"
p3292
sS'3730'
p3293
S'Conversation, The (1974)'
p3294
sS'3917'
p3295
S'Hellraiser (1987)'
p3296
sS'2136'
p3297
S'Nutty Professor, The (1963)'
p3298
sS'3915'
p3299
S'Girlfight (2000)'
p3300
sS'3914'
p3301
S'Broken Hearts Club, The (2000)'
p3302
sS'3913'
p3303
S'Barenaked in America (1999)'
p3304
sS'3214'
p3305
S'American Flyers (1985)'
p3306
sS'3911'
p3307
S'Best in Show (2000)'
p3308
sS'2137'
p3309
S"Charlotte's Web (1973)"
p3310
sS'3919'
p3311
S'Hellraiser III: Hell on Earth (1992)'
p3312
sS'3918'
p3313
S'Hellbound: Hellraiser II (1988)'
p3314
sS'2794'
p3315
S'European Vacation (1985)'
p3316
sS'3932'
p3317
S'Invisible Man, The (1933)'
p3318
sS'3070'
p3319
S'Adventures of Buckaroo Bonzai Across the 8th Dimension, The (1984)'
p3320
sS'2965'
p3321
S'Omega Code, The (1999)'
p3322
sS'3071'
p3323
S'Stand and Deliver (1987)'
p3324
sS'216'
p3325
S'Billy Madison (1995)'
p3326
sS'217'
p3327
S'Babysitter, The (1995)'
p3328
sS'214'
p3329
S'Before the Rain (Pred dozhdot) (1994)'
p3330
sS'215'
p3331
S'Before Sunrise (1995)'
p3332
sS'212'
p3333
S'Bushwhacked (1995)'
p3334
sS'213'
p3335
S'Burnt By the Sun (Utomlyonnye solntsem) (1994)'
p3336
sS'210'
p3337
S'Wild Bill (1995)'
p3338
sS'211'
p3339
S'Browning Version, The (1994)'
p3340
sS'218'
p3341
S'Boys on the Side (1995)'
p3342
sS'219'
p3343
S'Cure, The (1995)'
p3344
sS'3094'
p3345
S'Maurice (1987)'
p3346
sS'2138'
p3347
S'Watership Down (1978)'
p3348
sS'2139'
p3349
S'Secret of NIMH, The (1982)'
p3350
sS'4'
p3351
S'Waiting to Exhale (1995)'
p3352
sS'3489'
p3353
S'Hook (1991)'
p3354
sS'3488'
p3355
S'Hideous Sun Demon, The (1959)'
p3356
sS'3481'
p3357
S'High Fidelity (2000)'
p3358
sS'3480'
p3359
S'Lucas (1986)'
p3360
sS'3284'
p3361
S'They Might Be Giants (1971)'
p3362
sS'3482'
p3363
S'Price of Glory (2000)'
p3364
sS'3485'
p3365
S'Autopsy (Macchie Solari) (1975)'
p3366
sS'2669'
p3367
S'Pork Chop Hill (1959)'
p3368
sS'3487'
p3369
S'Dorado, El (1967)'
p3370
sS'3486'
p3371
S'Devil Girl From Mars (1954)'
p3372
sS'3649'
p3373
S'American Gigolo (1980)'
p3374
sS'3648'
p3375
S'Abominable Snowman, The (1957)'
p3376
sS'3074'
p3377
S'Jeremiah Johnson (1972)'
p3378
sS'3646'
p3379
S"Big Momma's House (2000)"
p3380
sS'3645'
p3381
S'Cleo From 5 to 7 (Cl\xe9o de 5 \xe0 7) (1962)'
p3382
sS'3644'
p3383
S'Dark Command (1940)'
p3384
sS'3643'
p3385
S'Fighting Seabees, The (1944)'
p3386
sS'3642'
p3387
S'In Old California (1942)'
p3388
sS'3641'
p3389
S'Woman of Paris, A (1923)'
p3390
sS'3640'
p3391
S'King in New York, A (1957)'
p3392
sS'2550'
p3393
S'Haunting, The (1963)'
p3394
sS'2551'
p3395
S'Dead Ringers (1988)'
p3396
sS'2552'
p3397
S"My Boyfriend's Back (1993)"
p3398
sS'2553'
p3399
S'Village of the Damned (1960)'
p3400
sS'2554'
p3401
S'Children of the Damned (1963)'
p3402
sS'2555'
p3403
S'Baby Geniuses (1999)'
p3404
sS'2556'
p3405
S'Telling You (1998)'
p3406
sS'2557'
p3407
S'I Stand Alone (Seul contre tous) (1998)'
p3408
sS'2558'
p3409
S'Forces of Nature (1999)'
p3410
sS'2559'
p3411
S'King and I, The (1999)'
p3412
sS'3007'
p3413
S'American Movie (1999)'
p3414
sS'2396'
p3415
S'Shakespeare in Love (1998)'
p3416
sS'2397'
p3417
S'Mass Appeal (1984)'
p3418
sS'2394'
p3419
S'Prince of Egypt, The (1998)'
p3420
sS'2395'
p3421
S'Rushmore (1998)'
p3422
sS'2392'
p3423
S'Jack Frost (1998)'
p3424
sS'2393'
p3425
S'Star Trek: Insurrection (1998)'
p3426
sS'2390'
p3427
S'Little Voice (1998)'
p3428
sS'2391'
p3429
S'Simple Plan, A (1998)'
p3430
sS'3001'
p3431
S'Suburbans, The (1999)'
p3432
sS'2398'
p3433
S'Miracle on 34th Street (1947)'
p3434
sS'2399'
p3435
S'Santa Claus: The Movie (1985)'
p3436
sS'2778'
p3437
S'Never Talk to Strangers (1995)'
p3438
sS'2779'
p3439
S'Heaven Can Wait (1978)'
p3440
sS'3003'
p3441
S'Train of Life (Train De Vie) (1998)'
p3442
sS'3282'
p3443
S'Different for Girls (1996)'
p3444
sS'2770'
p3445
S'Bowfinger (1999)'
p3446
sS'2771'
p3447
S'Brokedown Palace (1999)'
p3448
sS'2772'
p3449
S'Detroit Rock City (1999)'
p3450
sS'2773'
p3451
S'Alice and Martin (Alice et Martin) (1998)'
p3452
sS'2774'
p3453
S'Better Than Chocolate (1999)'
p3454
sS'2775'
p3455
S'Head On (1998)'
p3456
sS'2776'
p3457
S'Marcello Mastroianni: I Remember Yes, I Remember (1997)'
p3458
sS'2777'
p3459
S'Cobra (1925)'
p3460
sS'3166'
p3461
S'Brenda Starr (1989)'
p3462
sS'2751'
p3463
S'From the Hip (1987)'
p3464
sS'2803'
p3465
S'Pelican Brief, The (1993)'
p3466
sS'3940'
p3467
S'Slumber Party Massacre III, The (1990)'
p3468
sS'3164'
p3469
S'Alley Cats, The (1968)'
p3470
sS'1858'
p3471
S'Mr. Nice Guy (1997)'
p3472
sS'1859'
p3473
S'Taste of Cherry (1997)'
p3474
sS'3165'
p3475
S'Boiling Point (1993)'
p3476
sS'3281'
p3477
S'Brandon Teena Story, The (1998)'
p3478
sS'1850'
p3479
S"I Love You, Don't Touch Me! (1998)"
p3480
sS'1851'
p3481
S'Leather Jacket Love Story (1997)'
p3482
sS'1852'
p3483
S'Love Walked In (1998)'
p3484
sS'1853'
p3485
S'Alan Smithee Film: Burn Hollywood Burn, An (1997)'
p3486
sS'1854'
p3487
S'Kissing a Fool (1998)'
p3488
sS'1855'
p3489
S"Krippendorf's Tribe (1998)"
p3490
sS'1856'
p3491
S'Kurt & Courtney (1998)'
p3492
sS'1857'
p3493
S'Real Blonde, The (1997)'
p3494
sS'2172'
p3495
S'Strike! (a.k.a. All I Wanna Do, The Hairy Bird) (1998)'
p3496
sS'2173'
p3497
S'Navigator: A Mediaeval Odyssey, The (1988)'
p3498
sS'2170'
p3499
S'Wrongfully Accused (1998)'
p3500
sS'2171'
p3501
S'Next Stop, Wonderland (1998)'
p3502
sS'919'
p3503
S'Wizard of Oz, The (1939)'
p3504
sS'918'
p3505
S'Meet Me in St. Louis (1944)'
p3506
sS'2174'
p3507
S'Beetlejuice (1988)'
p3508
sS'2175'
p3509
S'D\xe9j\xe0 Vu (1997)'
p3510
sS'915'
p3511
S'Sabrina (1954)'
p3512
sS'914'
p3513
S'My Fair Lady (1964)'
p3514
sS'917'
p3515
S'Little Princess, The (1939)'
p3516
sS'916'
p3517
S'Roman Holiday (1953)'
p3518
sS'911'
p3519
S'Charade (1963)'
p3520
sS'910'
p3521
S'Some Like It Hot (1959)'
p3522
sS'913'
p3523
S'Maltese Falcon, The (1941)'
p3524
sS'912'
p3525
S'Casablanca (1942)'
p3526
sS'2604'
p3527
S'Let it Come Down: The Life of Paul Bowles (1998)'
p3528
sS'2605'
p3529
S'Entrapment (1999)'
p3530
sS'2606'
p3531
S'Idle Hands (1999)'
p3532
sS'2607'
p3533
S'Get Real (1998)'
p3534
sS'2600'
p3535
S'eXistenZ (1999)'
p3536
sS'2601'
p3537
S'Little Bit of Soul, A (1998)'
p3538
sS'2602'
p3539
S'Mighty Peking Man (Hsing hsing wang) (1977)'
p3540
sS'2603'
p3541
S'N\xf4 (1998)'
p3542
sS'3846'
p3543
S'Easy Money (1983)'
p3544
sS'2608'
p3545
S'Heaven (1998)'
p3546
sS'2609'
p3547
S'King of Masks, The (Bian Lian) (1996)'
p3548
sS'1933'
p3549
S'Life of \xc9mile Zola, The (1937)'
p3550
sS'1932'
p3551
S'Great Ziegfeld, The (1936)'
p3552
sS'1931'
p3553
S'Mutiny on the Bounty (1935)'
p3554
sS'1930'
p3555
S'Cavalcade (1933)'
p3556
sS'1937'
p3557
S'Going My Way (1944)'
p3558
sS'1936'
p3559
S'Mrs. Miniver (1942)'
p3560
sS'1935'
p3561
S'How Green Was My Valley (1941)'
p3562
sS'1934'
p3563
S"You Can't Take It With You (1938)"
p3564
sS'3269'
p3565
S'Forever Young (1992)'
p3566
sS'3268'
p3567
S'Stop! Or My Mom Will Shoot (1992)'
p3568
sS'1939'
p3569
S'Best Years of Our Lives, The (1946)'
p3570
sS'1938'
p3571
S'Lost Weekend, The (1945)'
p3572
sS'3369'
p3573
S'Any Number Can Win (M\xe9lodie en sous-sol ) (1963)'
p3574
sS'847'
p3575
S'Big Squeeze, The (1996)'
p3576
sS'846'
p3577
S'Flirt (1995)'
p3578
sS'845'
p3579
S'Day the Sun Turned Cold, The (Tianguo niezi) (1994)'
p3580
sS'844'
p3581
S'Story of Xinghua, The (1993)'
p3582
sS'843'
p3583
S'Lotto Land (1995)'
p3584
sS'842'
p3585
S'Tales from the Crypt Presents: Bordello of Blood (1996)'
p3586
sS'841'
p3587
S'Eyes Without a Face (1959)'
p3588
sS'840'
p3589
S'House Arrest (1996)'
p3590
sS'849'
p3591
S'Escape from L.A. (1996)'
p3592
sS'848'
p3593
S'Spitfire Grill, The (1996)'
p3594
sS'3364'
p3595
S'Asphalt Jungle, The (1950)'
p3596
sS'2406'
p3597
S'Romancing the Stone (1984)'
p3598
sS'663'
p3599
S'Kids in the Hall: Brain Candy (1996)'
p3600
sS'1587'
p3601
S'Conan the Barbarian (1982)'
p3602
sS'2407'
p3603
S'Cocoon (1985)'
p3604
sS'1739'
p3605
S'3 Ninjas: High Noon On Mega Mountain (1998)'
p3606
sS'1738'
p3607
S'Vermin (1998)'
p3608
sS'1731'
p3609
S'Mr. Magoo (1997)'
p3610
sS'1730'
p3611
S'Kundun (1997)'
p3612
sS'1733'
p3613
S'Afterglow (1997)'
p3614
sS'1732'
p3615
S'Big Lebowski, The (1998)'
p3616
sS'662'
p3617
S'Fear (1996)'
p3618
sS'1734'
p3619
S'My Life in Pink (Ma vie en rose) (1997)'
p3620
sS'3895'
p3621
S'Watcher, The (2000)'
p3622
sS'1039'
p3623
S'Synthetic Pleasures (1995)'
p3624
sS'753'
p3625
S'Month by the Lake, A (1995)'
p3626
sS'752'
p3627
S'Vermont Is For Lovers (1992)'
p3628
sS'751'
p3629
S'Careful (1992)'
p3630
sS'750'
p3631
S'Dr. Strangelove or: How I Learned to Stop Worrying and Love the Bomb (1963)'
p3632
sS'757'
p3633
S'Ashes of Time (1994)'
p3634
sS'756'
p3635
S'Carmen Miranda: Bananas Is My Business (1994)'
p3636
sS'755'
p3637
S'Kim (1950)'
p3638
sS'754'
p3639
S'Gold Diggers: The Secret of Bear Mountain (1995)'
p3640
sS'759'
p3641
S'Maya Lin: A Strong Clear Vision (1994)'
p3642
sS'758'
p3643
S'Jar, The (Khomreh) (1992)'
p3644
sS'3780'
p3645
S'Rocketship X-M (1950)'
p3646
sS'1595'
p3647
S'Free Willy 3: The Rescue (1997)'
p3648
sS'506'
p3649
S'Orlando (1993)'
p3650
sS'1597'
p3651
S'Conspiracy Theory (1997)'
p3652
sS'1596'
p3653
S'Career Girls (1997)'
p3654
sS'1591'
p3655
S'Spawn (1997)'
p3656
sS'1590'
p3657
S'Event Horizon (1997)'
p3658
sS'1593'
p3659
S'Picture Perfect (1997)'
p3660
sS'507'
p3661
S'Perfect World, A (1993)'
p3662
sS'2954'
p3663
S'Penitentiary (1979)'
p3664
sS'2955'
p3665
S'Penitentiary II (1982)'
p3666
sS'2956'
p3667
S'Someone to Watch Over Me (1987)'
p3668
sS'2957'
p3669
S'Sparrows (1926)'
p3670
sS'1599'
p3671
S'Steel (1997)'
p3672
sS'504'
p3673
S'No Escape (1994)'
p3674
sS'2952'
p3675
S'Hard 8 (a.k.a. Sydney, a.k.a. Hard Eight) (1996)'
p3676
sS'2953'
p3677
S'Home Alone 2: Lost in New York (1992)'
p3678
sS'1025'
p3679
S'Sword in the Stone, The (1963)'
p3680
sS'1024'
p3681
S'Three Caballeros, The (1945)'
p3682
sS'1027'
p3683
S'Robin Hood: Prince of Thieves (1991)'
p3684
sS'1031'
p3685
S'Bedknobs and Broomsticks (1971)'
p3686
sS'1021'
p3687
S'Angels in the Outfield (1994)'
p3688
sS'1020'
p3689
S'Cool Runnings (1993)'
p3690
sS'1023'
p3691
S'Winnie the Pooh and the Blustery Day (1968)'
p3692
sS'1022'
p3693
S'Cinderella (1950)'
p3694
sS'1036'
p3695
S'Die Hard (1988)'
p3696
sS'1029'
p3697
S'Dumbo (1941)'
p3698
sS'1028'
p3699
S'Mary Poppins (1964)'
p3700
sS'1037'
p3701
S'Lawnmower Man, The (1992)'
p3702
sS'1034'
p3703
S'Freeway (1996)'
p3704
sS'501'
p3705
S'Naked (1993)'
p3706
sS'3951'
p3707
S'Two Family House (2000)'
p3708
sS'605'
p3709
S'One Fine Day (1996)'
p3710
sS'604'
p3711
S'Criminals (1996)'
p3712
sS'607'
p3713
S'Century (1993)'
p3714
sS'606'
p3715
S'Candyman: Farewell to the Flesh (1995)'
p3716
sS'601'
p3717
S"Wooden Man's Bride, The (Wu Kui) (1994)"
p3718
sS'600'
p3719
S'Love and a .45 (1994)'
p3720
sS'603'
p3721
S'Bye Bye, Love (1995)'
p3722
sS'602'
p3723
S'Great Day in Harlem, A (1994)'
p3724
sS'1205'
p3725
S'Transformers: The Movie, The (1986)'
p3726
sS'1204'
p3727
S'Lawrence of Arabia (1962)'
p3728
sS'1207'
p3729
S'To Kill a Mockingbird (1962)'
p3730
sS'1206'
p3731
S'Clockwork Orange, A (1971)'
p3732
sS'609'
p3733
S'Homeward Bound II: Lost in San Francisco (1996)'
p3734
sS'1200'
p3735
S'Aliens (1986)'
p3736
sS'1203'
p3737
S'12 Angry Men (1957)'
p3738
sS'1202'
p3739
S'Withnail and I (1987)'
p3740
sS'1211'
p3741
S'Wings of Desire (Der Himmel \xfcber Berlin) (1987)'
p3742
sS'634'
p3743
S'Theodore Rex (1995)'
p3744
sS'1217'
p3745
S'Ran (1985)'
p3746
sS'3108'
p3747
S'Fisher King, The (1991)'
p3748
sS'1214'
p3749
S'Alien (1979)'
p3750
sS'3104'
p3751
S'Midnight Run (1988)'
p3752
sS'3105'
p3753
S'Awakenings (1990)'
p3754
sS'3106'
p3755
S'Come See the Paradise (1990)'
p3756
sS'1215'
p3757
S'Army of Darkness (1993)'
p3758
sS'3100'
p3759
S'River Runs Through It, A (1992)'
p3760
sS'3101'
p3761
S'Fatal Attraction (1987)'
p3762
sS'3102'
p3763
S'Jagged Edge (1985)'
p3764
sS'3103'
p3765
S'Stanley & Iris (1990)'
p3766
sS'1111'
p3767
S"Microcosmos (Microcosmos: Le peuple de l'herbe) (1996)"
p3768
sS'1110'
p3769
S'Bird of Prey (1996)'
p3770
sS'1113'
p3771
S'Associate, The (1996)'
p3772
sS'1112'
p3773
S'Palookaville (1996)'
p3774
sS'1115'
p3775
S'Sleepover (1995)'
p3776
sS'1114'
p3777
S'Funeral, The (1996)'
p3778
sS'1117'
p3779
S'Eighth Day, The (Le Huiti\xe8me jour ) (1996)'
p3780
sS'464'
p3781
S'Hard Target (1993)'
p3782
sS'1119'
p3783
S'Drunks (1997)'
p3784
sS'1118'
p3785
S'Tashunga (1995)'
p3786
sS'467'
p3787
S'Live Nude Girls (1995)'
p3788
sS'1449'
p3789
S'Waiting for Guffman (1996)'
p3790
sS'1448'
p3791
S'Fire on the Mountain (1996)'
p3792
sS'466'
p3793
S'Hot Shots! Part Deux (1993)'
p3794
sS'1357'
p3795
S'Shine (1996)'
p3796
sS'460'
p3797
S'Getting Even with Dad (1994)'
p3798
sS'1355'
p3799
S'Nightwatch (1997)'
p3800
sS'489'
p3801
S'Made in America (1993)'
p3802
sS'488'
p3803
S'M. Butterfly (1993)'
p3804
sS'487'
p3805
S'Lightning Jack (1994)'
p3806
sS'486'
p3807
S'Life with Mikey (1993)'
p3808
sS'485'
p3809
S'Last Action Hero (1993)'
p3810
sS'1354'
p3811
S'Breaking the Waves (1996)'
p3812
sS'483'
p3813
S'King of the Hill (1993)'
p3814
sS'482'
p3815
S'Killing Zoe (1994)'
p3816
sS'481'
p3817
S'Kalifornia (1993)'
p3818
sS'480'
p3819
S'Jurassic Park (1993)'
p3820
sS'3705'
p3821
S'Bird on a Wire (1990)'
p3822
sS'3922'
p3823
S'Bikini Beach (1964)'
p3824
sS'3923'
p3825
S'Return of the Fly (1959)'
p3826
sS'3920'
p3827
S'Faraway, So Close (In Weiter Ferne, So Nah!) (1993)'
p3828
sS'3921'
p3829
S'Beach Party (1963)'
p3830
sS'3299'
p3831
S'Hanging Up (2000)'
p3832
sS'3927'
p3833
S'Fantastic Voyage (1966)'
p3834
sS'3924'
p3835
S'Pajama Party (1964)'
p3836
sS'3925'
p3837
S'Stranger Than Paradise (1984)'
p3838
sS'3928'
p3839
S'Abbott and Costello Meet Frankenstein (1948)'
p3840
sS'3929'
p3841
S'Bank Dick, The (1940)'
p3842
sS'3647'
p3843
S'Running Free (2000)'
p3844
sS'3856'
p3845
S'Autumn Heart (1999)'
p3846
sS'3857'
p3847
S'Bless the Child (2000)'
p3848
sS'3854'
p3849
S'Aim\xe9e & Jaguar (1999)'
p3850
sS'3855'
p3851
S'Affair of Love, An (Une Liaison Pornographique) (1999)'
p3852
sS'3852'
p3853
S'Tao of Steve, The (2000)'
p3854
sS'3853'
p3855
S'Tic Code, The (1998)'
p3856
sS'3850'
p3857
S'Whatever Happened to Aunt Alice? (1969)'
p3858
sS'3851'
p3859
S"I'm the One That I Want (2000)"
p3860
sS'3858'
p3861
S'Cecil B. Demented (2000)'
p3862
sS'3859'
p3863
S'Eyes of Tammy Faye, The (2000)'
p3864
sS'3848'
p3865
S'Silent Fall (1994)'
p3866
sS'3005'
p3867
S'Bone Collector, The (1999)'
p3868
sS'3283'
p3869
S'Minnie and Moskowitz (1971)'
p3870
sS'2898'
p3871
S'Dark Half, The (1993)'
p3872
sS'3004'
p3873
S'Bachelor, The (1999)'
p3874
sS'3665'
p3875
S'Curse of the Puppet Master (1998)'
p3876
sS'2896'
p3877
S'Alvarez Kelly (1966)'
p3878
sS'199'
p3879
S'Umbrellas of Cherbourg, The (Parapluies de Cherbourg, Les) (1964)'
p3880
sS'198'
p3881
S'Strange Days (1995)'
p3882
sS'3664'
p3883
S'Puppet Master 5: The Final Chapter (1994)'
p3884
sS'195'
p3885
S'Something to Talk About (1995)'
p3886
sS'194'
p3887
S'Smoke (1995)'
p3888
sS'197'
p3889
S'Stars Fell on Henrietta, The (1995)'
p3890
sS'196'
p3891
S'Species (1995)'
p3892
sS'191'
p3893
S'Scarlet Letter, The (1995)'
p3894
sS'190'
p3895
S'Safe (1995)'
p3896
sS'193'
p3897
S'Showgirls (1995)'
p3898
sS'192'
p3899
S'Show, The (1995)'
p3900
sS'3678'
p3901
S'Man with the Golden Arm, The (1955)'
p3902
sS'3679'
p3903
S'Decline of Western Civilization, The (1981)'
p3904
sS'3672'
p3905
S'Benji (1974)'
p3906
sS'3673'
p3907
S'Benji the Hunted (1987)'
p3908
sS'3670'
p3909
S'Story of G.I. Joe, The (1945)'
p3910
sS'2408'
p3911
S'Cocoon: The Return (1988)'
p3912
sS'3676'
p3913
S'Eraserhead (1977)'
p3914
sS'3677'
p3915
S'Baraka (1992)'
p3916
sS'3674'
p3917
S'For the Love of Benji (1977)'
p3918
sS'3675'
p3919
S'White Christmas (1954)'
p3920
sS'2543'
p3921
S'Six Ways to Sunday (1997)'
p3922
sS'1454'
p3923
S'SubUrbia (1997)'
p3924
sS'2541'
p3925
S'Cruel Intentions (1999)'
p3926
sS'2540'
p3927
S'Corruptor, The (1999)'
p3928
sS'2547'
p3929
S'Harvest (1998)'
p3930
sS'2546'
p3931
S'Deep End of the Ocean, The (1999)'
p3932
sS'2545'
p3933
S"Relax... It's Just Sex (1998)"
p3934
sS'1455'
p3935
S'Hotel de Love (1996)'
p3936
sS'3006'
p3937
S'Insider, The (1999)'
p3938
sS'2549'
p3939
S'Wing Commander (1999)'
p3940
sS'2548'
p3941
S'Rage: Carrie 2, The (1999)'
p3942
sS'1456'
p3943
S'Pest, The (1997)'
p3944
sS'2381'
p3945
S'Police Academy 4: Citizens on Patrol (1987)'
p3946
sS'2380'
p3947
S'Police Academy 3: Back in Training (1986)'
p3948
sS'2383'
p3949
S'Police Academy 6: City Under Siege (1989)'
p3950
sS'1457'
p3951
S'Fools Rush In (1997)'
p3952
sS'2385'
p3953
S'Home Fries (1998)'
p3954
sS'2384'
p3955
S'Babe: Pig in the City (1998)'
p3956
sS'2387'
p3957
S'Very Bad Things (1998)'
p3958
sS'2386'
p3959
S'Jerry Springer: Ringmaster (1998)'
p3960
sS'2389'
p3961
S'Psycho (1998)'
p3962
sS'1450'
p3963
S'Prisoner of the Mountains (Kavkazsky Plennik) (1996)'
p3964
sS'3580'
p3965
S'Up at the Villa (2000)'
p3966
sS'3581'
p3967
S'Human Traffic (1999)'
p3968
sS'2769'
p3969
S'Yards, The (1999)'
p3970
sS'2768'
p3971
S'Stiff Upper Lips (1998)'
p3972
sS'3584'
p3973
S'Breathless (1983)'
p3974
sS'3585'
p3975
S'Great Locomotive Chase, The (1956)'
p3976
sS'3586'
p3977
S'Idolmaker, The (1980)'
p3978
sS'3259'
p3979
S'Far and Away (1992)'
p3980
sS'2763'
p3981
S'Thomas Crown Affair, The (1999)'
p3982
sS'2762'
p3983
S'Sixth Sense, The (1999)'
p3984
sS'2761'
p3985
S'Iron Giant, The (1999)'
p3986
sS'1453'
p3987
S'Beautician and the Beast, The (1997)'
p3988
sS'2767'
p3989
S'Illuminata (1998)'
p3990
sS'2766'
p3991
S'Adventures of Sebastian Cole, The (1998)'
p3992
sS'2765'
p3993
S'Acid House, The (1998)'
p3994
sS'2764'
p3995
S'Thomas Crown Affair, The (1968)'
p3996
sS'1949'
p3997
S'Man for All Seasons, A (1966)'
p3998
sS'2007'
p3999
S'Polish Wedding (1998)'
p4000
sS'902'
p4001
S"Breakfast at Tiffany's (1961)"
p4002
sS'903'
p4003
S'Vertigo (1958)'
p4004
sS'900'
p4005
S'American in Paris, An (1951)'
p4006
sS'901'
p4007
S'Funny Face (1957)'
p4008
sS'906'
p4009
S'Gaslight (1944)'
p4010
sS'907'
p4011
S'Gay Divorcee, The (1934)'
p4012
sS'904'
p4013
S'Rear Window (1954)'
p4014
sS'905'
p4015
S'It Happened One Night (1934)'
p4016
sS'1843'
p4017
S'Slappy and the Stinkers (1998)'
p4018
sS'1511'
p4019
S'A Chef in Love (1996)'
p4020
sS'908'
p4021
S'North by Northwest (1959)'
p4022
sS'909'
p4023
S'Apartment, The (1960)'
p4024
sS'1847'
p4025
S'Ratchet (1996)'
p4026
sS'1846'
p4027
S'Nil By Mouth (1997)'
p4028
sS'1845'
p4029
S'Zero Effect (1998)'
p4030
sS'1844'
p4031
S'Live Flesh (1997)'
p4032
sS'3250'
p4033
S'Alive (1993)'
p4034
sS'2169'
p4035
S'Dead Man on Campus (1998)'
p4036
sS'2168'
p4037
S'Dance with Me (1998)'
p4038
sS'3251'
p4039
S'Agnes of God (1985)'
p4040
sS'2165'
p4041
S'Your Friends and Neighbors (1998)'
p4042
sS'2164'
p4043
S'Surf Nazis Must Die (1987)'
p4044
sS'2167'
p4045
S'Blade (1998)'
p4046
sS'2166'
p4047
S'Return to Paradise (1998)'
p4048
sS'2161'
p4049
S'NeverEnding Story, The (1984)'
p4050
sS'2160'
p4051
S"Rosemary's Baby (1968)"
p4052
sS'2163'
p4053
S'Attack of the Killer Tomatoes! (1980)'
p4054
sS'2162'
p4055
S'NeverEnding Story II: The Next Chapter, The (1990)'
p4056
sS'2617'
p4057
S'Mummy, The (1999)'
p4058
sS'2616'
p4059
S'Dick Tracy (1990)'
p4060
sS'2615'
p4061
S'My Science Project (1985)'
p4062
sS'2614'
p4063
S'Chopping Mall (a.k.a. Killbots) (1986)'
p4064
sS'2613'
p4065
S'Night of the Comet (1984)'
p4066
sS'2612'
p4067
S'Mildred Pierce (1945)'
p4068
sS'2611'
p4069
S'Winslow Boy, The (1998)'
p4070
sS'2610'
p4071
S'Three Seasons (1999)'
p4072
sS'3254'
p4073
S"Wayne's World 2 (1993)"
p4074
sS'2619'
p4075
S'Mascara (1999)'
p4076
sS'1947'
p4077
S'West Side Story (1961)'
p4078
sS'3298'
p4079
S'Boiler Room (2000)'
p4080
sS'3256'
p4081
S'Patriot Games (1992)'
p4082
sS'1908'
p4083
S'Resurrection Man (1998)'
p4084
sS'1909'
p4085
S'X-Files: Fight the Future, The (1998)'
p4086
sS'1906'
p4087
S'Mr. Jealousy (1997)'
p4088
sS'1907'
p4089
S'Mulan (1998)'
p4090
sS'1904'
p4091
S'Henry Fool (1997)'
p4092
sS'1905'
p4093
S'Marie Baie Des Anges (1997)'
p4094
sS'1902'
p4095
S'Dream for an Insomniac (1996)'
p4096
sS'1903'
p4097
S'Hav Plenty (1997)'
p4098
sS'1900'
p4099
S'Children of Heaven, The (Bacheha-Ye Aseman) (1997)'
p4100
sS'1901'
p4101
S'Dear Jesse (1997)'
p4102
sS'854'
p4103
S'Ballad of Narayama, The (Narayama Bushiko) (1958)'
p4104
sS'855'
p4105
S'Every Other Weekend (1990)'
p4106
sS'856'
p4107
S'Mille bolle blu (1993)'
p4108
sS'857'
p4109
S'Crows and Sparrows (1949)'
p4110
sS'850'
p4111
S'Cyclo (1995)'
p4112
sS'851'
p4113
S'Basquiat (1996)'
p4114
sS'852'
p4115
S'Tin Cup (1996)'
p4116
sS'853'
p4117
S'Dingo (1992)'
p4118
sS'3458'
p4119
S'Blood and Sand (Sangre y Arena) (1989)'
p4120
sS'3459'
p4121
S'Gothic (1986)'
p4122
sS'858'
p4123
S'Godfather, The (1972)'
p4124
sS'859'
p4125
S'Hippie Revolution, The (1996)'
p4126
sS'3293'
p4127
S'Conceiving Ada (1997)'
p4128
sS'6'
p4129
S'Heat (1995)'
p4130
sS'2463'
p4131
S'Ruthless People (1986)'
p4132
sS'3864'
p4133
S'Godzilla 2000 (Gojira ni-sen mireniamu) (1999)'
p4134
sS'741'
p4135
S'Ghost in the Shell (Kokaku kidotai) (1995)'
p4136
sS'742'
p4137
S'Thinner (1996)'
p4138
sS'743'
p4139
S'Spy Hard (1996)'
p4140
sS'744'
p4141
S'Brothers in Trouble (1995)'
p4142
sS'745'
p4143
S'Close Shave, A (1995)'
p4144
sS'746'
p4145
S'Force of Evil (1948)'
p4146
sS'747'
p4147
S'Stupids, The (1996)'
p4148
sS'748'
p4149
S'Arrival, The (1996)'
p4150
sS'749'
p4151
S'Man from Down Under, The (1943)'
p4152
sS'2912'
p4153
S'Limey, The (1999)'
p4154
sS'3063'
p4155
S'Poison Ivy (1992)'
p4156
sS'3062'
p4157
S'Longest Day, The (1962)'
p4158
sS'3061'
p4159
S'Holiday Inn (1942)'
p4160
sS'1798'
p4161
S'Hush (1998)'
p4162
sS'3067'
p4163
S'Women on the Verge of a Nervous Breakdown (1988)'
p4164
sS'3066'
p4165
S'Tora! Tora! Tora! (1970)'
p4166
sS'2949'
p4167
S'Dr. No (1962)'
p4168
sS'2948'
p4169
S'From Russia with Love (1963)'
p4170
sS'2947'
p4171
S'Goldfinger (1964)'
p4172
sS'2946'
p4173
S'Help! (1965)'
p4174
sS'2945'
p4175
S"Mike's Murder (1984)"
p4176
sS'2944'
p4177
S'Dirty Dozen, The (1967)'
p4178
sS'2943'
p4179
S'Indochine (1992)'
p4180
sS'2942'
p4181
S'Flashdance (1983)'
p4182
sS'2941'
p4183
S'South Pacific (1958)'
p4184
sS'2940'
p4185
S'Gilda (1946)'
p4186
sS'1050'
p4187
S'Looking for Richard (1996)'
p4188
sS'1051'
p4189
S'Trees Lounge (1996)'
p4190
sS'1052'
p4191
S'Proprietor, The (1996)'
p4192
sS'1053'
p4193
S'Normal Life (1996)'
p4194
sS'1054'
p4195
S'Get on the Bus (1996)'
p4196
sS'1055'
p4197
S'Shadow Conspiracy (1997)'
p4198
sS'1056'
p4199
S'Jude (1996)'
p4200
sS'1057'
p4201
S'Everyone Says I Love You (1996)'
p4202
sS'1058'
p4203
S'Bitter Sugar (Azucar Amargo) (1996)'
p4204
sS'1059'
p4205
S"William Shakespeare's Romeo and Juliet (1996)"
p4206
sS'2917'
p4207
S'Body Heat (1981)'
p4208
sS'1696'
p4209
S'Bent (1997)'
p4210
sS'1697'
p4211
S'Big Bang Theory, The (1994)'
p4212
sS'1694'
p4213
S'Apostle, The (1997)'
p4214
sS'1695'
p4215
S'Artemisia (1997)'
p4216
sS'1692'
p4217
S'Alien Escape (1995)'
p4218
sS'1693'
p4219
S'Amistad (1997)'
p4220
sS'1690'
p4221
S'Alien: Resurrection (1997)'
p4222
sS'1792'
p4223
S'U.S. Marshalls (1998)'
p4224
sS'2595'
p4225
S'Photographer (Fotoamator) (1998)'
p4226
sS'1791'
p4227
S'Twilight (1998)'
p4228
sS'1698'
p4229
S'Boys, Les (1997)'
p4230
sS'1699'
p4231
S'Butcher Boy, The (1998)'
p4232
sS'1278'
p4233
S'Young Frankenstein (1974)'
p4234
sS'1279'
p4235
S'Night on Earth (1991)'
p4236
sS'618'
p4237
S'Two Much (1996)'
p4238
sS'619'
p4239
S'Ed (1996)'
p4240
sS'612'
p4241
S'Pallbearer, The (1996)'
p4242
sS'613'
p4243
S'Jane Eyre (1996)'
p4244
sS'610'
p4245
S'Heavy Metal (1981)'
p4246
sS'611'
p4247
S'Hellraiser: Bloodline (1996)'
p4248
sS'616'
p4249
S'Aristocats, The (1970)'
p4250
sS'617'
p4251
S'Flower of My Secret, The (La Flor de Mi Secreto) (1995)'
p4252
sS'614'
p4253
S'Loaded (1994)'
p4254
sS'615'
p4255
S'Bread and Chocolate (Pane e cioccolata) (1973)'
p4256
sS'1795'
p4257
S'Callej\xf3n de los milagros, El (1995)'
p4258
sS'1794'
p4259
S'Love and Death on Long Island (1997)'
p4260
sS'3333'
p4261
S'Killing of Sister George, The (1968)'
p4262
sS'3119'
p4263
S'Bay of Blood (Reazione a catena) (1971)'
p4264
sS'3118'
p4265
S'Tumbleweeds (1999)'
p4266
sS'3117'
p4267
S'Ride with the Devil (1999)'
p4268
sS'3116'
p4269
S'Miss Julie (1999)'
p4270
sS'3115'
p4271
S'Flawless (1999)'
p4272
sS'3114'
p4273
S'Toy Story 2 (1999)'
p4274
sS'3113'
p4275
S'End of Days (1999)'
p4276
sS'3112'
p4277
S"'Night Mother (1986)"
p4278
sS'2469'
p4279
S'Peggy Sue Got Married (1986)'
p4280
sS'3110'
p4281
S'Country (1984)'
p4282
sS'1472'
p4283
S'City of Industry (1997)'
p4284
sS'1473'
p4285
S'Best Men (1997)'
p4286
sS'1470'
p4287
S'Rhyme & Reason (1997)'
p4288
sS'1471'
p4289
S'Boys Life 2 (1997)'
p4290
sS'1476'
p4291
S'Private Parts (1997)'
p4292
sS'1477'
p4293
S'Love Jones (1997)'
p4294
sS'1474'
p4295
S'Jungle2Jungle (a.k.a. Jungle 2 Jungle) (1997)'
p4296
sS'1475'
p4297
S'Kama Sutra: A Tale of Love (1996)'
p4298
sS'3337'
p4299
S"I'll Never Forget What's 'is Name (1967)"
p4300
sS'1479'
p4301
S'Saint, The (1997)'
p4302
sS'3336'
p4303
S'It Happened Here (1961)'
p4304
sS'1304'
p4305
S'Butch Cassidy and the Sundance Kid (1969)'
p4306
sS'1305'
p4307
S'Paris, Texas (1984)'
p4308
sS'1306'
p4309
S'Until the End of the World (Bis ans Ende der Welt) (1991)'
p4310
sS'1307'
p4311
S'When Harry Met Sally... (1989)'
p4312
sS'1300'
p4313
S'My Life as a Dog (Mitt liv som hund) (1985)'
p4314
sS'1301'
p4315
S'Forbidden Planet (1956)'
p4316
sS'1302'
p4317
S'Field of Dreams (1989)'
p4318
sS'1303'
p4319
S'Man Who Would Be King, The (1975)'
p4320
sS'1497'
p4321
S'Double Team (1997)'
p4322
sS'1308'
p4323
S'I Shot a Man in Vegas (1995)'
p4324
sS'1309'
p4325
S'Parallel Sons (1995)'
p4326
sS'3308'
p4327
S'Flamingo Kid, The (1984)'
p4328
sS'3590'
p4329
S'Lords of Flatbush, The (1974)'
p4330
sS'498'
p4331
S'Mr. Jones (1993)'
p4332
sS'499'
p4333
S'Mr. Wonderful (1993)'
p4334
sS'3280'
p4335
S'Baby, The (1973)'
p4336
sS'494'
p4337
S'Executive Decision (1996)'
p4338
sS'495'
p4339
S'In the Realm of the Senses (Ai no corrida) (1976)'
p4340
sS'496'
p4341
S'What Happened Was... (1994)'
p4342
sS'497'
p4343
S'Much Ado About Nothing (1993)'
p4344
sS'490'
p4345
S'Malice (1993)'
p4346
sS'491'
p4347
S'Man Without a Face, The (1993)'
p4348
sS'492'
p4349
S'Manhattan Murder Mystery (1993)'
p4350
sS'493'
p4351
S'Menace II Society (1993)'
p4352
sS'24'
p4353
S'Powder (1995)'
p4354
sS'25'
p4355
S'Leaving Las Vegas (1995)'
p4356
sS'26'
p4357
S'Othello (1995)'
p4358
sS'27'
p4359
S'Now and Then (1995)'
p4360
sS'20'
p4361
S'Money Train (1995)'
p4362
sS'21'
p4363
S'Get Shorty (1995)'
p4364
sS'22'
p4365
S'Copycat (1995)'
p4366
sS'23'
p4367
S'Assassins (1995)'
p4368
sS'3732'
p4369
S'Fury, The (1978)'
p4370
sS'2593'
p4371
S'Monster, The (Il Mostro) (1994)'
p4372
sS'28'
p4373
S'Persuasion (1995)'
p4374
sS'29'
p4375
S'City of Lost Children, The (1995)'
p4376
sS'3262'
p4377
S'Twin Peaks: Fire Walk with Me (1992)'
p4378
sS'3942'
p4379
S'Sorority House Massacre II (1990)'
p4380
sS'3939'
p4381
S'Slumber Party Massacre II, The (1987)'
p4382
sS'3938'
p4383
S'Slumber Party Massacre, The (1982)'
p4384
sS'3935'
p4385
S'Kronos (1973)'
p4386
sS'3934'
p4387
S'Kronos (1957)'
p4388
sS'3937'
p4389
S'Runaway (1984)'
p4390
sS'3936'
p4391
S'Phantom of the Opera, The (1943)'
p4392
sS'3931'
p4393
S'Giant Gila Monster, The (1959)'
p4394
sS'3930'
p4395
S'Creature From the Black Lagoon, The (1954)'
p4396
sS'3933'
p4397
S'Killer Shrews, The (1959)'
p4398
sS'2599'
p4399
S'Election (1999)'
p4400
sS'1703'
p4401
S'For Richer or Poorer (1997)'
p4402
sS'3265'
p4403
S'Hard-Boiled (Lashou shentan) (1992)'
p4404
sS'3841'
p4405
S'Air America (1990)'
p4406
sS'3840'
p4407
S'Pumpkinhead (1988)'
p4408
sS'3264'
p4409
S'Buffy the Vampire Slayer (1992)'
p4410
sS'1875'
p4411
S'Clockwatchers (1997)'
p4412
sS'3845'
p4413
S'And God Created Woman (Et Dieu&#8230;Cr\xe9a la Femme) (1956)'
p4414
sS'3844'
p4415
S'Steel Magnolias (1989)'
p4416
sS'3847'
p4417
S'Ilsa, She Wolf of the SS (1974)'
p4418
sS'1709'
p4419
S'Legal Deceit (1997)'
p4420
sS'3849'
p4421
S'Spiral Staircase, The (1946)'
p4422
sS'3671'
p4423
S'Blazing Saddles (1974)'
p4424
sS'3916'
p4425
S'Remember the Titans (2000)'
p4426
sS'3267'
p4427
S'Mariachi, El (1992)'
p4428
sS'3912'
p4429
S'Beautiful (2000)'
p4430
sS'3910'
p4431
S'Dancer in the Dark (2000)'
p4432
sS'3266'
p4433
S"Man Bites Dog (C'est arriv\xe9 pr\xe8s de chez vous) (1992)"
p4434
sS'7'
p4435
S'Sabrina (1995)'
p4436
sS'1879'
p4437
S'Hanging Garden, The (1997)'
p4438
sS'2288'
p4439
S'Thing, The (1982)'
p4440
sS'2289'
p4441
S'Player, The (1992)'
p4442
sS'3667'
p4443
S'Rent-A-Cop (1988)'
p4444
sS'3666'
p4445
S'Retro Puppetmaster (1999)'
p4446
sS'3661'
p4447
S'Puppet Master II (1990)'
p4448
sS'3660'
p4449
S'Puppet Master (1989)'
p4450
sS'3663'
p4451
S'Puppet Master 4 (1993)'
p4452
sS'2050'
p4453
S'Herbie Goes Bananas (1980)'
p4454
sS'2280'
p4455
S'Clay Pigeons (1998)'
p4456
sS'2281'
p4457
S'Monument Ave. (1998)'
p4458
sS'2282'
p4459
S'Pecker (1998)'
p4460
sS'2283'
p4461
S'Sheltering Sky, The (1990)'
p4462
sS'2284'
p4463
S'Bandit Queen (1994)'
p4464
sS'2285'
p4465
S'If.... (1968)'
p4466
sS'2286'
p4467
S'Fiendish Plot of Dr. Fu Manchu, The (1980)'
p4468
sS'2287'
p4469
S'Them! (1954)'
p4470
sS'972'
p4471
S'Last Time I Saw Paris, The (1954)'
p4472
sS'2578'
p4473
S'Sticky Fingers of Time, The (1997)'
p4474
sS'2579'
p4475
S'Following (1998)'
p4476
sS'2576'
p4477
S'Love, etc. (1996)'
p4478
sS'2577'
p4479
S'Metroland (1997)'
p4480
sS'2574'
p4481
S'Out-of-Towners, The (1999)'
p4482
sS'2056'
p4483
S'In Search of the Castaways (1962)'
p4484
sS'2572'
p4485
S'10 Things I Hate About You (1999)'
p4486
sS'2573'
p4487
S'Tango (1998)'
p4488
sS'2570'
p4489
S'Walk on the Moon, A (1999)'
p4490
sS'2571'
p4491
S'Matrix, The (1999)'
p4492
sS'3690'
p4493
S"Porky's Revenge (1985)"
p4494
sS'2378'
p4495
S'Police Academy (1984)'
p4496
sS'2379'
p4497
S'Police Academy 2: Their First Assignment (1985)'
p4498
sS'3691'
p4499
S'Private School (1983)'
p4500
sS'2374'
p4501
S'Gung Ho (1986)'
p4502
sS'2375'
p4503
S'Money Pit, The (1986)'
p4504
sS'2376'
p4505
S'View to a Kill, A (1985)'
p4506
sS'2377'
p4507
S'Lifeforce (1985)'
p4508
sS'2370'
p4509
S'Emerald Forest, The (1985)'
p4510
sS'2371'
p4511
S'Fletch (1985)'
p4512
sS'2372'
p4513
S'Fletch Lives (1989)'
p4514
sS'2373'
p4515
S'Red Sonja (1985)'
p4516
sS'2594'
p4517
S'Open Your Eyes (Abre los ojos) (1997)'
p4518
sS'1087'
p4519
S'Madame Butterfly (1995)'
p4520
sS'2596'
p4521
S'SLC Punk! (1998)'
p4522
sS'2597'
p4523
S'Lost & Found (1999)'
p4524
sS'2590'
p4525
S'Hideous Kinky (1998)'
p4526
sS'2591'
p4527
S'Jeanne and the Perfect Guy (Jeanne et le gar\xe7on formidable) (1998)'
p4528
sS'2592'
p4529
S'Joyriders, The (1999)'
p4530
sS'1086'
p4531
S'Dial M for Murder (1954)'
p4532
sS'3599'
p4533
S'Anchors Aweigh (1945)'
p4534
sS'3598'
p4535
S'Hamlet (2000)'
p4536
sS'2598'
p4537
S'Pushing Tin (1999)'
p4538
sS'1085'
p4539
S'Old Man and the Sea, The (1958)'
p4540
sS'3695'
p4541
S'Toxic Avenger Part III: The Last Temptation of Toxie, The (1989)'
p4542
sS'1876'
p4543
S'Deep Impact (1998)'
p4544
sS'1877'
p4545
S'Little Men (1998)'
p4546
sS'1874'
p4547
S'Still Breathing (1997)'
p4548
sS'1084'
p4549
S'Bonnie and Clyde (1967)'
p4550
sS'1872'
p4551
S'Go Now (1995)'
p4552
sS'1873'
p4553
S'Mis\xe9rables, Les (1998)'
p4554
sS'1870'
p4555
S'Dancer, Texas Pop. 81 (1998)'
p4556
sS'1871'
p4557
S'Friend of the Deceased, A (1997)'
p4558
sS'1083'
p4559
S'Great Race, The (1965)'
p4560
sS'1878'
p4561
S'Woo (1998)'
p4562
sS'1082'
p4563
S'Candidate, The (1972)'
p4564
sS'977'
p4565
S'Moonlight Murder (1936)'
p4566
sS'976'
p4567
S'Farewell to Arms, A (1932)'
p4568
sS'975'
p4569
S'Something to Sing About (1937)'
p4570
sS'974'
p4571
S'Algiers (1938)'
p4572
sS'973'
p4573
S'Meet John Doe (1941)'
p4574
sS'1081'
p4575
S'Victor/Victoria (1982)'
p4576
sS'971'
p4577
S'Cat on a Hot Tin Roof (1958)'
p4578
sS'970'
p4579
S'Beat the Devil (1954)'
p4580
sS'1080'
p4581
S"Monty Python's Life of Brian (1979)"
p4582
sS'979'
p4583
S'Nothing Personal (1995)'
p4584
sS'978'
p4585
S'Blue Angel, The (Blaue Engel, Der) (1930)'
p4586
sS'182'
p4587
S'Moonlight and Valentino (1995)'
p4588
sS'183'
p4589
S'Mute Witness (1994)'
p4590
sS'180'
p4591
S'Mallrats (1995)'
p4592
sS'181'
p4593
S'Mighty Morphin Power Rangers: The Movie (1995)'
p4594
sS'186'
p4595
S'Nine Months (1995)'
p4596
sS'187'
p4597
S'Party Girl (1995)'
p4598
sS'184'
p4599
S'Nadja (1994)'
p4600
sS'185'
p4601
S'Net, The (1995)'
p4602
sS'2110'
p4603
S"Dead Men Don't Wear Plaid (1982)"
p4604
sS'2111'
p4605
S'Man with Two Brains, The (1983)'
p4606
sS'188'
p4607
S'Prophecy, The (1995)'
p4608
sS'189'
p4609
S'Reckless (1995)'
p4610
sS'2114'
p4611
S'Outsiders, The (1983)'
p4612
sS'2115'
p4613
S'Indiana Jones and the Temple of Doom (1984)'
p4614
sS'2116'
p4615
S'Lord of the Rings, The (1978)'
p4616
sS'1559'
p4617
S'Next Step, The (1995)'
p4618
sS'2622'
p4619
S"Midsummer Night's Dream, A (1999)"
p4620
sS'2623'
p4621
S"Trippin' (1999)"
p4622
sS'2620'
p4623
S'This Is My Father (1998)'
p4624
sS'2621'
p4625
S'Xiu Xiu: The Sent-Down Girl (Tian yu) (1998)'
p4626
sS'2626'
p4627
S'Edge of Seventeen (1998)'
p4628
sS'2627'
p4629
S'Endurance (1998)'
p4630
sS'2624'
p4631
S'After Life (1998)'
p4632
sS'2625'
p4633
S'Black Mask (Hak hap) (1996)'
p4634
sS'2628'
p4635
S'Star Wars: Episode I - The Phantom Menace (1999)'
p4636
sS'2629'
p4637
S'Love Letter, The (1999)'
p4638
sS'1919'
p4639
S'Madeline (1998)'
p4640
sS'1918'
p4641
S'Lethal Weapon 4 (1998)'
p4642
sS'1464'
p4643
S'Lost Highway (1997)'
p4644
sS'3289'
p4645
S'Not One Less (Yi ge dou bu neng shao) (1999)'
p4646
sS'3288'
p4647
S'Cotton Mary (1999)'
p4648
sS'1911'
p4649
S'Doctor Dolittle (1998)'
p4650
sS'1910'
p4651
S'I Went Down (1997)'
p4652
sS'1913'
p4653
S'Picnic at Hanging Rock (1975)'
p4654
sS'1912'
p4655
S'Out of Sight (1998)'
p4656
sS'1915'
p4657
S'Voyage to the Beginning of the World (1997)'
p4658
sS'1914'
p4659
S'Smoke Signals (1998)'
p4660
sS'1917'
p4661
S'Armageddon (1998)'
p4662
sS'1916'
p4663
S'Buffalo 66 (1998)'
p4664
sS'869'
p4665
S'Kansas City (1996)'
p4666
sS'868'
p4667
S'Death in Brunswick (1991)'
p4668
sS'2113'
p4669
S'Graveyard Shift (1990)'
p4670
sS'3449'
p4671
S'Good Mother, The (1988)'
p4672
sS'3448'
p4673
S'Good Morning, Vietnam (1987)'
p4674
sS'3141'
p4675
S'Two Jakes, The (1990)'
p4676
sS'861'
p4677
S'Supercop (1992)'
p4678
sS'860'
p4679
S'Maybe, Maybe Not (Bewegte Mann, Der) (1994)'
p4680
sS'863'
p4681
S'Celestial Clockwork (1994)'
p4682
sS'862'
p4683
S'Manny & Lo (1996)'
p4684
sS'865'
p4685
S'Small Faces (1995)'
p4686
sS'864'
p4687
S'Wife, The (1995)'
p4688
sS'867'
p4689
S'Carpool (1996)'
p4690
sS'866'
p4691
S'Bound (1996)'
p4692
sS'2024'
p4693
S'Rapture, The (1991)'
p4694
sS'2025'
p4695
S'Lolita (1997)'
p4696
sS'2026'
p4697
S'Disturbing Behavior (1998)'
p4698
sS'2027'
p4699
S'Mafia! (1998)'
p4700
sS'2020'
p4701
S'Dangerous Liaisons (1988)'
p4702
sS'2021'
p4703
S'Dune (1984)'
p4704
sS'2022'
p4705
S'Last Temptation of Christ, The (1988)'
p4706
sS'2023'
p4707
S'Godfather: Part III, The (1990)'
p4708
sS'3144'
p4709
S'Glass Bottom Boat, The (1966)'
p4710
sS'2117'
p4711
S'Nineteen Eighty-Four (1984)'
p4712
sS'2028'
p4713
S'Saving Private Ryan (1998)'
p4714
sS'2029'
p4715
S"Billy's Hollywood Screen Kiss (1997)"
p4716
sS'2758'
p4717
S'Plenty (1985)'
p4718
sS'2759'
p4719
S'Dick (1999)'
p4720
sS'882'
p4721
S'Trigger Effect, The (1996)'
p4722
sS'881'
p4723
S'First Kid (1996)'
p4724
sS'880'
p4725
S'Island of Dr. Moreau, The (1996)'
p4726
sS'887'
p4727
S'Talk of Angels (1998)'
p4728
sS'886'
p4729
S'Bulletproof (1996)'
p4730
sS'885'
p4731
S'Bogus (1996)'
p4732
sS'884'
p4733
S'Sweet Nothing (1995)'
p4734
sS'889'
p4735
S'1-900 (1994)'
p4736
sS'888'
p4737
S'Land Before Time III: The Time of the Great Giving (1995)'
p4738
sS'3148'
p4739
S'Cider House Rules, The (1999)'
p4740
sS'3149'
p4741
S'Diamonds (1999)'
p4742
sS'3729'
p4743
S'Shaft (1971)'
p4744
sS'775'
p4745
S'Spirits of the Dead (Tre Passi nel Delirio) (1968)'
p4746
sS'774'
p4747
S"Wend Kuuni (God's Gift) (1982)"
p4748
sS'777'
p4749
S"Pharaoh's Army (1995)"
p4750
sS'776'
p4751
S'Babyfever (1994)'
p4752
sS'771'
p4753
S'Vie est belle, La (Life is Rosey) (1987)'
p4754
sS'770'
p4755
S'Costa Brava (1946)'
p4756
sS'773'
p4757
S'Touki Bouki (Journey of the Hyena) (1973)'
p4758
sS'772'
p4759
S'Quartier Mozart (1992)'
p4760
sS'779'
p4761
S"'Til There Was You (1997)"
p4762
sS'778'
p4763
S'Trainspotting (1996)'
p4764
sS'77'
p4765
S'Nico Icon (1995)'
p4766
sS'76'
p4767
S'Screamers (1995)'
p4768
sS'75'
p4769
S'Big Bully (1996)'
p4770
sS'74'
p4771
S'Bed of Roses (1996)'
p4772
sS'73'
p4773
S'Mis\xe9rables, Les (1995)'
p4774
sS'72'
p4775
S'Kicking and Screaming (1995)'
p4776
sS'71'
p4777
S'Fair Game (1995)'
p4778
sS'70'
p4779
S'From Dusk Till Dawn (1996)'
p4780
sS'2972'
p4781
S'Red Sorghum (Hong Gao Liang) (1987)'
p4782
sS'2973'
p4783
S'Crimes and Misdemeanors (1989)'
p4784
sS'2970'
p4785
S'Fitzcarraldo (1982)'
p4786
sS'2971'
p4787
S'All That Jazz (1979)'
p4788
sS'2976'
p4789
S'Bringing Out the Dead (1999)'
p4790
sS'2977'
p4791
S'Crazy in Alabama (1999)'
p4792
sS'79'
p4793
S'Juror, The (1996)'
p4794
sS'78'
p4795
S'Crossing Guard, The (1995)'
p4796
sS'1043'
p4797
S'To Gillian on Her 37th Birthday (1996)'
p4798
sS'1042'
p4799
S'That Thing You Do! (1996)'
p4800
sS'1041'
p4801
S'Secrets & Lies (1996)'
p4802
sS'1040'
p4803
S'Secret Agent, The (1996)'
p4804
sS'1047'
p4805
S'Long Kiss Goodnight, The (1996)'
p4806
sS'1046'
p4807
S'Beautiful Thing (1996)'
p4808
sS'1045'
p4809
S'Love Is All There Is (1996)'
p4810
sS'1044'
p4811
S'Surviving Picasso (1996)'
p4812
sS'1049'
p4813
S'Ghost and the Darkness, The (1996)'
p4814
sS'1681'
p4815
S'Mortal Kombat: Annihilation (1997)'
p4816
sS'1680'
p4817
S'Sliding Doors (1998)'
p4818
sS'1683'
p4819
S'Wings of the Dove, The (1997)'
p4820
sS'1682'
p4821
S'Truman Show, The (1998)'
p4822
sS'1685'
p4823
S'I Love You, I Love You Not (1996)'
p4824
sS'1684'
p4825
S'Mrs. Dalloway (1997)'
p4826
sS'1687'
p4827
S'Jackal, The (1997)'
p4828
sS'1686'
p4829
S'Red Corner (1997)'
p4830
sS'1689'
p4831
S'Man Who Knew Too Little, The (1997)'
p4832
sS'1688'
p4833
S'Anastasia (1997)'
p4834
sS'3025'
p4835
S'Rough Night in Jericho (1967)'
p4836
sS'1269'
p4837
S'Arsenic and Old Lace (1944)'
p4838
sS'1268'
p4839
S'Pump Up the Volume (1990)'
p4840
sS'3341'
p4841
S'Born Yesterday (1950)'
p4842
sS'669'
p4843
S'Aparajito (1956)'
p4844
sS'668'
p4845
S'Pather Panchali (1955)'
p4846
sS'1263'
p4847
S'Deer Hunter, The (1978)'
p4848
sS'1262'
p4849
S'Great Escape, The (1963)'
p4850
sS'665'
p4851
S'Underground (1995)'
p4852
sS'664'
p4853
S'Faithful (1996)'
p4854
sS'1267'
p4855
S'Manchurian Candidate, The (1962)'
p4856
sS'1266'
p4857
S'Unforgiven (1992)'
p4858
sS'1265'
p4859
S'Groundhog Day (1993)'
p4860
sS'1264'
p4861
S'Diva (1981)'
p4862
sS'3287'
p4863
S'Tigger Movie, The (2000)'
p4864
sS'3021'
p4865
S'Funhouse, The (1981)'
p4866
sS'3286'
p4867
S'Snow Day (2000)'
p4868
sS'3020'
p4869
S'Falling Down (1993)'
p4870
sS'3285'
p4871
S'Beach, The (2000)'
p4872
sS'3128'
p4873
S'Map of the World, A (1999)'
p4874
sS'3129'
p4875
S'Sweet and Lowdown (1999)'
p4876
sS'3122'
p4877
S'Santa Fe Trail (1940)'
p4878
sS'3123'
p4879
S'Spring Fever USA (a.k.a. Lauderdale) (1989)'
p4880
sS'3120'
p4881
S'Distinguished Gentleman, The (1992)'
p4882
sS'3121'
p4883
S'Hitch-Hiker, The (1953)'
p4884
sS'3126'
p4885
S'End of the Affair, The (1955)'
p4886
sS'3127'
p4887
S'Holy Smoke (1999)'
p4888
sS'3124'
p4889
S'Agnes Browne (1999)'
p4890
sS'3125'
p4891
S'End of the Affair, The (1999)'
p4892
sS'1468'
p4893
S'Booty Call (1997)'
p4894
sS'1465'
p4895
S'Rosewood (1997)'
p4896
sS'1018'
p4897
S'That Darn Cat! (1965)'
p4898
sS'1467'
p4899
S'Salut cousin! (1996)'
p4900
sS'1466'
p4901
S'Donnie Brasco (1997)'
p4902
sS'1461'
p4903
S'Vegas Vacation (1997)'
p4904
sS'1460'
p4905
S'That Darn Cat! (1997)'
p4906
sS'1463'
p4907
S'That Old Feeling (1997)'
p4908
sS'1019'
p4909
S'20,000 Leagues Under the Sea (1954)'
p4910
sS'1317'
p4911
S"I'm Not Rappaport (1996)"
p4912
sS'1316'
p4913
S'Anna (1996)'
p4914
sS'1315'
p4915
S'Paris Was a Woman (1995)'
p4916
sS'1314'
p4917
S'Breathing Room (1996)'
p4918
sS'1313'
p4919
S'Mad Dog Time (1996)'
p4920
sS'1312'
p4921
S'Female Perversions (1996)'
p4922
sS'1311'
p4923
S'Santa with Muscles (1996)'
p4924
sS'1310'
p4925
S'Hype! (1996)'
p4926
sS'3276'
p4927
S'Gun Shy (2000)'
p4928
sS'1319'
p4929
S'Kids of Survival (1993)'
p4930
sS'1318'
p4931
S'Blue Juice (1995)'
p4932
sS'2460'
p4933
S'Texas Chainsaw Massacre 2, The (1986)'
p4934
sS'1010'
p4935
S'Love Bug, The (1969)'
p4936
sS'1011'
p4937
S'Herbie Rides Again (1974)'
p4938
sS'3445'
p4939
S'Eyes of Laura Mars (1978)'
p4940
sS'3035'
p4941
S'Mister Roberts (1955)'
p4942
sS'3444'
p4943
S'Bloodsport (1988)'
p4944
sS'3447'
p4945
S'Good Earth, The (1937)'
p4946
sS'3948'
p4947
S'Meet the Parents (2000)'
p4948
sS'3949'
p4949
S'Requiem for a Dream (2000)'
p4950
sS'319'
p4951
S'Shallow Grave (1994)'
p4952
sS'318'
p4953
S'Shawshank Redemption, The (1994)'
p4954
sS'3403'
p4955
S'Raise the Titanic (1980)'
p4956
sS'313'
p4957
S'Swan Princess, The (1994)'
p4958
sS'312'
p4959
S'Stuart Saves His Family (1995)'
p4960
sS'311'
p4961
S'Relative Fear (1994)'
p4962
sS'310'
p4963
S'Rent-a-Kid (1995)'
p4964
sS'317'
p4965
S'Santa Clause, The (1994)'
p4966
sS'316'
p4967
S'Stargate (1994)'
p4968
sS'315'
p4969
S'Specialist, The (1994)'
p4970
sS'314'
p4971
S'Secret of Roan Inish, The (1994)'
p4972
sS'3443'
p4973
S'Born American (1986)'
p4974
sS'3442'
p4975
S'Band of the Hand (1986)'
p4976
sS'2756'
p4977
S'Wanted: Dead or Alive (1987)'
p4978
sS'3402'
p4979
S'Turtle Diary (1985)'
p4980
sS'2757'
p4981
S'Frances (1982)'
p4982
sS'2754'
p4983
S'Deadtime Stories (1987)'
p4984
sS'1335'
p4985
S'Blood Beach (1981)'
p4986
sS'2755'
p4987
S'Light of Day (1987)'
p4988
sS'3722'
p4989
S'Live Virgin (1999)'
p4990
sS'1334'
p4991
S'Blob, The (1958)'
p4992
sS'2752'
p4993
S'Outrageous Fortune (1987)'
p4994
sS'1337'
p4995
S'Body Snatcher, The (1945)'
p4996
sS'3658'
p4997
S'Quatermass and the Pit (1967)'
p4998
sS'2753'
p4999
S'Bedroom Window, The (1987)'
p5000
sS'3405'
p5001
S'Night to Remember, A (1958)'
p5002
sS'1336'
p5003
S'Body Parts (1991)'
p5004
sS'2750'
p5005
S'Radio Days (1987)'
p5006
sS'2322'
p5007
S'Soldier (1998)'
p5008
sS'1331'
p5009
S'Audrey Rose (1977)'
p5010
sS'2698'
p5011
S'Zone 39 (1997)'
p5012
sS'1330'
p5013
S"April Fool's Day (1986)"
p5014
sS'1333'
p5015
S'Birds, The (1963)'
p5016
sS'1332'
p5017
S'Believers, The (1987)'
p5018
sS'3404'
p5019
S'Titanic (1953)'
p5020
sS'3273'
p5021
S'Scream 3 (2000)'
p5022
sS'2324'
p5023
S'Life Is Beautiful (La Vita \xe8 bella) (1997)'
p5024
sS'2692'
p5025
S'Run Lola Run (Lola rennt) (1998)'
p5026
sS'630'
p5027
S'Carried Away (1996)'
p5028
sS'3843'
p5029
S'Sleepaway Camp (1983)'
p5030
sS'3407'
p5031
S'Carriers Are Waiting, The (Les Convoyeurs Attendent) (1999)'
p5032
sS'2461'
p5033
S'Leatherface: Texas Chainsaw Massacre III (1990)'
p5034
sS'3610'
p5035
S'Roustabout (1964)'
p5036
sS'3611'
p5037
S'Saludos Amigos (1943)'
p5038
sS'2299'
p5039
S'Battle of the Sexes, The (1959)'
p5040
sS'2298'
p5041
S'Strangeland (1998)'
p5042
sS'2969'
p5043
S'Man and a Woman, A (Un Homme et une Femme) (1966)'
p5044
sS'3615'
p5045
S'Dinosaur (2000)'
p5046
sS'3616'
p5047
S'Loser (2000)'
p5048
sS'3617'
p5049
S'Road Trip (2000)'
p5050
sS'2293'
p5051
S'Shadrach (1998)'
p5052
sS'2292'
p5053
S'Overnight Delivery (1996)'
p5054
sS'2291'
p5055
S'Edward Scissorhands (1990)'
p5056
sS'2290'
p5057
S'Stardust Memories (1980)'
p5058
sS'2297'
p5059
S'What Dreams May Come (1998)'
p5060
sS'2296'
p5061
S'Night at the Roxbury, A (1998)'
p5062
sS'631'
p5063
S'All Dogs Go to Heaven 2 (1996)'
p5064
sS'2294'
p5065
S'Antz (1998)'
p5066
sS'3842'
p5067
S'Make Them Die Slowly (Cannibal Ferox) (1980)'
p5068
sS'3406'
p5069
S'Captain Horatio Hornblower (1951)'
p5070
sS'2569'
p5071
S'Among Giants (1998)'
p5072
sS'2568'
p5073
S'Mod Squad, The (1999)'
p5074
sS'2561'
p5075
S'True Crime (1999)'
p5076
sS'2560'
p5077
S'Ravenous (1999)'
p5078
sS'2563'
p5079
S'Beauty (1998)'
p5080
sS'2562'
p5081
S'Bandits (1997)'
p5082
sS'2565'
p5083
S'King and I, The (1956)'
p5084
sS'2564'
p5085
S'Empty Mirror, The (1999)'
p5086
sS'2567'
p5087
S'EDtv (1999)'
p5088
sS'2566'
p5089
S"Doug's 1st Movie (1999)"
p5090
sS'2369'
p5091
S'Desperately Seeking Susan (1985)'
p5092
sS'2368'
p5093
S'King Kong Lives (1986)'
p5094
sS'2367'
p5095
S'King Kong (1976)'
p5096
sS'2366'
p5097
S'King Kong (1933)'
p5098
sS'2365'
p5099
S'King Kong vs. Godzilla (Kingukongu tai Gojira) (1962)'
p5100
sS'2364'
p5101
S'Godzilla (Gojira) (1984)'
p5102
sS'2363'
p5103
S'Godzilla (Gojira) (1954)'
p5104
sS'2362'
p5105
S'Glen or Glenda (1953)'
p5106
sS'2361'
p5107
S'Pink Flamingos (1972)'
p5108
sS'2360'
p5109
S'Celebration, The (Festen) (1998)'
p5110
sS'2587'
p5111
S'Life (1999)'
p5112
sS'2586'
p5113
S'Goodbye, Lover (1999)'
p5114
sS'2585'
p5115
S'Lovers of the Arctic Circle, The (Los Amantes del C\xedrculo Polar) (1998)'
p5116
sS'2584'
p5117
S'Foolish (1999)'
p5118
sS'2583'
p5119
S"Cookie's Fortune (1999)"
p5120
sS'2582'
p5121
S'Twin Dragons (Shuang long hui) (1992)'
p5122
sS'2581'
p5123
S'Never Been Kissed (1999)'
p5124
sS'2580'
p5125
S'Go (1999)'
p5126
sS'2589'
p5127
S'Friends & Lovers (1999)'
p5128
sS'2588'
p5129
S'Clubland (1998)'
p5130
sS'1861'
p5131
S'Junk Mail (1997)'
p5132
sS'1860'
p5133
S'Character (Karakter) (1997)'
p5134
sS'1863'
p5135
S'Major League: Back to the Minors (1998)'
p5136
sS'1862'
p5137
S'Species II (1998)'
p5138
sS'1865'
p5139
S'Wild Man Blues (1998)'
p5140
sS'1864'
p5141
S'Sour Grapes (1998)'
p5142
sS'1867'
p5143
S'Tarzan and the Lost City (1998)'
p5144
sS'1866'
p5145
S'Big Hit, The (1998)'
p5146
sS'1869'
p5147
S'Black Dog (1998)'
p5148
sS'1868'
p5149
S'Truce, The (1996)'
p5150
sS'3556'
p5151
S'Virgin Suicides, The (1999)'
p5152
sS'3727'
p5153
S'Near Dark (1987)'
p5154
sS'3720'
p5155
S'Sunshine (1999)'
p5156
sS'3721'
p5157
S'Trixie (1999)'
p5158
sS'3207'
p5159
S'Snows of Kilimanjaro, The (1952)'
p5160
sS'3723'
p5161
S'Hamlet (1990)'
p5162
sS'964'
p5163
S'Angel and the Badman (1947)'
p5164
sS'965'
p5165
S'39 Steps, The (1935)'
p5166
sS'966'
p5167
S'Walk in the Sun, A (1945)'
p5168
sS'967'
p5169
S'Outlaw, The (1943)'
p5170
sS'960'
p5171
S'Angel on My Shoulder (1946)'
p5172
sS'961'
p5173
S'Little Lord Fauntleroy (1936)'
p5174
sS'962'
p5175
S'They Made Me a Criminal (1939)'
p5176
sS'963'
p5177
S'Inspector General, The (1949)'
p5178
sS'968'
p5179
S'Night of the Living Dead (1968)'
p5180
sS'969'
p5181
S'African Queen, The (1951)'
p5182
sS'2109'
p5183
S'Jerk, The (1979)'
p5184
sS'2108'
p5185
S'L.A. Story (1991)'
p5186
sS'2103'
p5187
S'Tall Tale (1994)'
p5188
sS'2102'
p5189
S'Steamboat Willie (1940)'
p5190
sS'2101'
p5191
S"Squanto: A Warrior's Tale (1994)"
p5192
sS'2100'
p5193
S'Splash (1984)'
p5194
sS'2107'
p5195
S'Halloween: H20 (1998)'
p5196
sS'2106'
p5197
S'Swing Kids (1993)'
p5198
sS'2105'
p5199
S'Tron (1982)'
p5200
sS'2104'
p5201
S'Tex (1982)'
p5202
sS'2639'
p5203
S'Mommie Dearest (1981)'
p5204
sS'2638'
p5205
S"Mummy's Tomb, The (1942)"
p5206
sS'635'
p5207
S'Family Thing, A (1996)'
p5208
sS'2635'
p5209
S"Mummy's Curse, The (1944)"
p5210
sS'2634'
p5211
S'Mummy, The (1959)'
p5212
sS'2637'
p5213
S"Mummy's Hand, The (1940)"
p5214
sS'2636'
p5215
S"Mummy's Ghost, The (1944)"
p5216
sS'2631'
p5217
S'Frogs for Snakes (1998)'
p5218
sS'2630'
p5219
S"Besieged (L' Assedio) (1998)"
p5220
sS'2633'
p5221
S'Mummy, The (1932)'
p5222
sS'2632'
p5223
S'Saragossa Manuscript, The (Rekopis znaleziony w Saragossie) (1965)'
p5224
sS'3527'
p5225
S'Predator (1987)'
p5226
sS'3765'
p5227
S'Hot Spot, The (1990)'
p5228
sS'3438'
p5229
S'Teenage Mutant Ninja Turtles (1990)'
p5230
sS'1241'
p5231
S'Braindead (1992)'
p5232
sS'878'
p5233
S'Bye-Bye (1995)'
p5234
sS'1240'
p5235
S'Terminator, The (1984)'
p5236
sS'876'
p5237
S'Police Story 4: Project S (Chao ji ji hua) (1993)'
p5238
sS'877'
p5239
S'Girls Town (1996)'
p5240
sS'874'
p5241
S'Killer: A Journal of Murder (1995)'
p5242
sS'875'
p5243
S'Nothing to Lose (1994)'
p5244
sS'872'
p5245
S'Aiqing wansui (1994)'
p5246
sS'1243'
p5247
S'Rosencrantz and Guildenstern Are Dead (1990)'
p5248
sS'870'
p5249
S"Gone Fishin' (1997)"
p5250
sS'871'
p5251
S"Lover's Knot (1996)"
p5252
sS'2037'
p5253
S'Candleshoe (1977)'
p5254
sS'2036'
p5255
S'Blank Check (1994)'
p5256
sS'2035'
p5257
S"Blackbeard's Ghost (1968)"
p5258
sS'1242'
p5259
S'Glory (1989)'
p5260
sS'2033'
p5261
S'Black Cauldron, The (1985)'
p5262
sS'2032'
p5263
S'Barefoot Executive, The (1971)'
p5264
sS'2031'
p5265
S'$1,000,000 Duck (1971)'
p5266
sS'2030'
p5267
S'East Palace West Palace (Dong gong xi gong) (1997)'
p5268
sS'9'
p5269
S'Sudden Death (1995)'
p5270
sS'1245'
p5271
S"Miller's Crossing (1990)"
p5272
sS'3483'
p5273
S'Road to El Dorado, The (2000)'
p5274
sS'2039'
p5275
S'Cheetah (1989)'
p5276
sS'1244'
p5277
S'Manhattan (1979)'
p5278
sS'890'
p5279
S'Baton Rouge (1988)'
p5280
sS'891'
p5281
S'Halloween: The Curse of Michael Myers (1995)'
p5282
sS'892'
p5283
S'Twelfth Night (1996)'
p5284
sS'893'
p5285
S'Mother Night (1996)'
p5286
sS'894'
p5287
S'Liebelei (1933)'
p5288
sS'1247'
p5289
S'Graduate, The (1967)'
p5290
sS'896'
p5291
S'Wild Reeds (1994)'
p5292
sS'897'
p5293
S'For Whom the Bell Tolls (1943)'
p5294
sS'898'
p5295
S'Philadelphia Story, The (1940)'
p5296
sS'899'
p5297
S"Singin' in the Rain (1952)"
p5298
sS'3095'
p5299
S'Grapes of Wrath, The (1940)'
p5300
sS'3651'
p5301
S'Blood Spattered Bride, The (La Novia Ensangrentada) (1972)'
p5302
sS'3484'
p5303
S'Skulls, The (2000)'
p5304
sS'1249'
p5305
S'Nikita (La Femme Nikita) (1990)'
p5306
sS'648'
p5307
S'Mission: Impossible (1996)'
p5308
sS'3236'
p5309
S'Zachariah (1971)'
p5310
sS'3237'
p5311
S"Kestrel's Eye (Falkens \xf6ga) (1998)"
p5312
sS'3544'
p5313
S'Shakes the Clown (1991)'
p5314
sS'3545'
p5315
S'Cabaret (1972)'
p5316
sS'3546'
p5317
S'What Ever Happened to Baby Jane? (1962)'
p5318
sS'3099'
p5319
S'Shampoo (1975)'
p5320
sS'3540'
p5321
S'Passion of Mind (1999)'
p5322
sS'3541'
p5323
S'Third World Cop (1999)'
p5324
sS'3542'
p5325
S'Coming Apart (1969)'
p5326
sS'3011'
p5327
S"They Shoot Horses, Don't They? (1969)"
p5328
sS'3235'
p5329
S'Where the Buffalo Roam (1980)'
p5330
sS'3548'
p5331
S'Auntie Mame (1958)'
p5332
sS'1537'
p5333
S'Shall We Dance? (Shall We Dansu?) (1996)'
p5334
sS'1964'
p5335
S'Klute (1971)'
p5336
sS'1965'
p5337
S'Repo Man (1984)'
p5338
sS'3201'
p5339
S'Five Easy Pieces (1970)'
p5340
sS'3597'
p5341
S'Whipped (2000)'
p5342
sS'1966'
p5343
S'Metropolitan (1990)'
p5344
sS'1788'
p5345
S'Men With Guns (1997)'
p5346
sS'1789'
p5347
S'Sadness of Sex, The (1995)'
p5348
sS'768'
p5349
S"Someone Else's America (1995)"
p5350
sS'769'
p5351
S'Marlene Dietrich: Shadow and Light (1996)'
p5352
sS'2961'
p5353
S'Story of Us, The (1999)'
p5354
sS'2960'
p5355
S'Beefcake (1999)'
p5356
sS'2963'
p5357
S'Joe the King (1999)'
p5358
sS'2962'
p5359
S'Fever Pitch (1997)'
p5360
sS'762'
p5361
S'Striptease (1996)'
p5362
sS'763'
p5363
S'Last of the High Kings, The (a.k.a. Summer Fling) (1996)'
p5364
sS'760'
p5365
S'Stalingrad (1993)'
p5366
sS'761'
p5367
S'Phantom, The (1996)'
p5368
sS'766'
p5369
S'I Shot Andy Warhol (1996)'
p5370
sS'767'
p5371
S'Grass Harp, The (1995)'
p5372
sS'764'
p5373
S'Heavy (1995)'
p5374
sS'765'
p5375
S'Jack (1996)'
p5376
sS'3049'
p5377
S'How I Won the War (1967)'
p5378
sS'3048'
p5379
S'Under the Rainbow (1981)'
p5380
sS'1962'
p5381
S'Driving Miss Daisy (1989)'
p5382
sS'3041'
p5383
S'Meatballs Part II (1984)'
p5384
sS'3040'
p5385
S'Meatballs (1979)'
p5386
sS'3043'
p5387
S'Meatballs 4 (1992)'
p5388
sS'1963'
p5389
S'Take the Money and Run (1969)'
p5390
sS'3045'
p5391
S"Peter's Friends (1992)"
p5392
sS'3044'
p5393
S'Dead Again (1991)'
p5394
sS'3047'
p5395
S'Experience Preferred... But Not Essential (1982)'
p5396
sS'3046'
p5397
S'Incredibly True Adventure of Two Girls in Love, The (1995)'
p5398
sS'1078'
p5399
S'Bananas (1971)'
p5400
sS'1079'
p5401
S'Fish Called Wanda, A (1988)'
p5402
sS'1076'
p5403
S'Innocents, The (1961)'
p5404
sS'1077'
p5405
S'Sleeper (1973)'
p5406
sS'1075'
p5407
S'Sexual Life of the Belgians, The (1994)'
p5408
sS'1073'
p5409
S'Willy Wonka and the Chocolate Factory (1971)'
p5410
sS'1070'
p5411
S'Macao (1952)'
p5412
sS'1071'
p5413
S'For the Moment (1994)'
p5414
sS'1678'
p5415
S'Joy Luck Club, The (1993)'
p5416
sS'1561'
p5417
S'Wedding Bell Blues (1996)'
p5418
sS'3030'
p5419
S'Yojimbo (1961)'
p5420
sS'1674'
p5421
S'Witness (1985)'
p5422
sS'1675'
p5423
S'Incognito (1997)'
p5424
sS'1676'
p5425
S'Starship Troopers (1997)'
p5426
sS'1677'
p5427
S'Critical Care (1997)'
p5428
sS'1670'
p5429
S'Welcome To Sarajevo (1997)'
p5430
sS'1671'
p5431
S'Deceiver (1997)'
p5432
sS'1672'
p5433
S'Rainmaker, The (1997)'
p5434
sS'1673'
p5435
S'Boogie Nights (1997)'
p5436
sS'1094'
p5437
S'Crying Game, The (1992)'
p5438
sS'1095'
p5439
S'Glengarry Glen Ross (1992)'
p5440
sS'1096'
p5441
S"Sophie's Choice (1982)"
p5442
sS'1097'
p5443
S'E.T. the Extra-Terrestrial (1982)'
p5444
sS'1090'
p5445
S'Platoon (1986)'
p5446
sS'1091'
p5447
S"Weekend at Bernie's (1989)"
p5448
sS'1092'
p5449
S'Basic Instinct (1992)'
p5450
sS'1093'
p5451
S'Doors, The (1991)'
p5452
sS'674'
p5453
S'Barbarella (1968)'
p5454
sS'675'
p5455
S'Hostile Intentions (1994)'
p5456
sS'676'
p5457
S'They Bite (1996)'
p5458
sS'1098'
p5459
S'Search for One-eye Jimmy, The (1996)'
p5460
sS'1099'
p5461
S'Christmas Carol, A (1938)'
p5462
sS'672'
p5463
S'Tarantella (1995)'
p5464
sS'673'
p5465
S'Space Jam (1996)'
p5466
sS'3135'
p5467
S'Great Santini, The (1979)'
p5468
sS'3134'
p5469
S'Grand Illusion (Grande illusion, La) (1937)'
p5470
sS'3137'
p5471
S'Sea Wolves, The (1980)'
p5472
sS'3136'
p5473
S'James Dean Story, The (1957)'
p5474
sS'3131'
p5475
S'Broadway Damage (1997)'
p5476
sS'3130'
p5477
S'Bonfire of the Vanities (1990)'
p5478
sS'3133'
p5479
S'Go West (1925)'
p5480
sS'3132'
p5481
S'Daddy Long Legs (1919)'
p5482
sS'3139'
p5483
S'Tarzan the Fearless (1933)'
p5484
sS'3138'
p5485
S'Stealing Home (1988)'
p5486
sS'3015'
p5487
S'Coma (1978)'
p5488
sS'1997'
p5489
S'Exorcist, The (1973)'
p5490
sS'1533'
p5491
S'Promise, The (La Promesse) (1996)'
p5492
sS'1419'
p5493
S'Walkabout (1971)'
p5494
sS'2490'
p5495
S'Payback (1999)'
p5496
sS'1410'
p5497
S'Evening Star, The (1996)'
p5498
sS'1411'
p5499
S'Hamlet (1996)'
p5500
sS'1412'
p5501
S"Some Mother's Son (1996)"
p5502
sS'1413'
p5503
S'Whole Wide World, The (1996)'
p5504
sS'1414'
p5505
S'Mother (1996)'
p5506
sS'1415'
p5507
S'Thieves (Voleurs, Les) (1996)'
p5508
sS'1416'
p5509
S'Evita (1996)'
p5510
sS'1417'
p5511
S'Portrait of a Lady, The (1996)'
p5512
sS'1322'
p5513
S"Amityville 1992: It's About Time (1992)"
p5514
sS'1323'
p5515
S'Amityville 3-D (1983)'
p5516
sS'1320'
p5517
S'Alien\xb3 (1992)'
p5518
sS'1321'
p5519
S'American Werewolf in London, An (1981)'
p5520
sS'1326'
p5521
S'Amityville II: The Possession (1982)'
p5522
sS'1327'
p5523
S'Amityville Horror, The (1979)'
p5524
sS'1324'
p5525
S'Amityville: Dollhouse (1996)'
p5526
sS'1325'
p5527
S'Amityville: A New Generation (1993)'
p5528
sS'1328'
p5529
S'Amityville Curse, The (1990)'
p5530
sS'1329'
p5531
S"Blood For Dracula (Andy Warhol's Dracula) (1974)"
p5532
sS'2494'
p5533
S'Last Days, The (1998)'
p5534
sS'5'
p5535
S'Father of the Bride Part II (1995)'
p5536
sS'1531'
p5537
S'Losing Chase (1996)'
p5538
sS'2874'
p5539
S'Pajama Game, The (1957)'
p5540
sS'3618'
p5541
S'Small Time Crooks (2000)'
p5542
sS'1256'
p5543
S'Duck Soup (1933)'
p5544
sS'1257'
p5545
S'Better Off Dead... (1985)'
p5546
sS'1254'
p5547
S'Treasure of the Sierra Madre, The (1948)'
p5548
sS'1255'
p5549
S'Bad Taste (1987)'
p5550
sS'1252'
p5551
S'Chinatown (1974)'
p5552
sS'1253'
p5553
S'Day the Earth Stood Still, The (1951)'
p5554
sS'1250'
p5555
S'Bridge on the River Kwai, The (1957)'
p5556
sS'1251'
p5557
S'8 1/2 (1963)'
p5558
sS'1528'
p5559
S'Intimate Relations (1996)'
p5560
sS'1529'
p5561
S'Nowhere (1997)'
p5562
sS'1258'
p5563
S'Shining, The (1980)'
p5564
sS'1259'
p5565
S'Stand by Me (1986)'
p5566
sS'308'
p5567
S'Three Colors: White (1994)'
p5568
sS'309'
p5569
S'Red Firecracker, Green Firecracker (1994)'
p5570
sS'300'
p5571
S'Quiz Show (1994)'
p5572
sS'301'
p5573
S'Picture Bride (1995)'
p5574
sS'302'
p5575
S'Queen Margot (La Reine Margot) (1994)'
p5576
sS'303'
p5577
S'Quick and the Dead, The (1995)'
p5578
sS'304'
p5579
S'Roommates (1995)'
p5580
sS'305'
p5581
S'Ready to Wear (Pret-A-Porter) (1994)'
p5582
sS'306'
p5583
S'Three Colors: Red (1994)'
p5584
sS'307'
p5585
S'Three Colors: Blue (1993)'
p5586
sS'2254'
p5587
S'Choices (1981)'
p5588
sS'2858'
p5589
S'American Beauty (1999)'
p5590
sS'2575'
p5591
S'Dreamlife of Angels, The (La Vie r\xeav\xe9e des anges) (1998)'
p5592
sS'2978'
p5593
S'Three to Tango (1999)'
p5594
sS'2979'
p5595
S'Body Shots (1999)'
p5596
sS'3340'
p5597
S'Bride of the Monster (1956)'
p5598
sS'3058'
p5599
S'Ape, The (1940)'
p5600
sS'3059'
p5601
S'British Intelligence (1940)'
p5602
sS'2475'
p5603
S'52 Pick-Up (1986)'
p5604
sS'3415'
p5605
S'Mirror, The (Zerkalo) (1975)'
p5606
sS'3056'
p5607
S'Oxygen (1999)'
p5608
sS'2474'
p5609
S'Color of Money, The (1986)'
p5610
sS'3057'
p5611
S"Where's Marlowe? (1999)"
p5612
sS'3054'
p5613
S'Pok\xe9mon: The First Movie (1998)'
p5614
sS'3700'
p5615
S'Brother from Another Planet, The (1984)'
p5616
sS'3204'
p5617
S'Boys from Brazil, The (1978)'
p5618
sS'3055'
p5619
S"Felicia's Journey (1999)"
p5620
sS'3528'
p5621
S'Prince of Tides, The (1991)'
p5622
sS'3052'
p5623
S'Dogma (1999)'
p5624
sS'3412'
p5625
S'Bear, The (1988)'
p5626
sS'3053'
p5627
S'Messenger: The Story of Joan of Arc, The (1999)'
p5628
sS'2974'
p5629
S'Bats (1999)'
p5630
sS'2975'
p5631
S'Best Man, The (1999)'
p5632
sS'3603'
p5633
S'Gay Deceivers, The (1969)'
p5634
sS'3602'
p5635
S'G. I. Blues (1960)'
p5636
sS'3601'
p5637
S'Castaway Cowboy, The (1974)'
p5638
sS'473'
p5639
S'In the Army Now (1994)'
p5640
sS'3607'
p5641
S'One Little Indian (1973)'
p5642
sS'3606'
p5643
S'On the Town (1949)'
p5644
sS'3605'
p5645
S'King Creole (1958)'
p5646
sS'3604'
p5647
S'Gypsy (1962)'
p5648
sS'3609'
p5649
S'Regret to Inform (1998)'
p5650
sS'3608'
p5651
S"Pee-wee's Big Adventure (1985)"
p5652
sS'3413'
p5653
S'Impact (1949)'
p5654
sS'2479'
p5655
S'Gloria (1999)'
p5656
sS'2478'
p5657
S'Three Amigos! (1986)'
p5658
sS'470'
p5659
S'House Party 3 (1994)'
p5660
sS'2950'
p5661
S'Blue Lagoon, The (1980)'
p5662
sS'2990'
p5663
S'Licence to Kill (1989)'
p5664
sS'2358'
p5665
S'Savior (1998)'
p5666
sS'2359'
p5667
S'Waking Ned Devine (1998)'
p5668
sS'2352'
p5669
S'Big Chill, The (1983)'
p5670
sS'2353'
p5671
S'Enemy of the State (1998)'
p5672
sS'2350'
p5673
S'Heart Condition (1990)'
p5674
sS'2351'
p5675
S'Nights of Cabiria (Le Notti di Cabiria) (1957)'
p5676
sS'2356'
p5677
S'Celebrity (1998)'
p5678
sS'2357'
p5679
S'Central Station (Central do Brasil) (1998)'
p5680
sS'2354'
p5681
S'Rugrats Movie, The (1998)'
p5682
sS'471'
p5683
S'Hudsucker Proxy, The (1994)'
p5684
sS'2991'
p5685
S'Live and Let Die (1973)'
p5686
sS'3398'
p5687
S'Muppets Take Manhattan, The (1984)'
p5688
sS'1898'
p5689
S'Land Girls, The (1998)'
p5690
sS'1899'
p5691
S'Passion in the Desert (1998)'
p5692
sS'3739'
p5693
S'Trouble in Paradise (1932)'
p5694
sS'3738'
p5695
S'Sugarland Express, The (1974)'
p5696
sS'1894'
p5697
S'Six Days Seven Nights (1998)'
p5698
sS'1895'
p5699
S"Can't Hardly Wait (1998)"
p5700
sS'1896'
p5701
S'Cousin Bette (1998)'
p5702
sS'1443'
p5703
S'Tickle in the Heart, A (1996)'
p5704
sS'1890'
p5705
S'Little Boy Blue (1997)'
p5706
sS'476'
p5707
S'Inkwell, The (1994)'
p5708
sS'1892'
p5709
S'Perfect Murder, A (1998)'
p5710
sS'1893'
p5711
S'Beyond Silence (1996)'
p5712
sS'959'
p5713
S'Of Human Bondage (1934)'
p5714
sS'958'
p5715
S'Lady of Burlesque (1943)'
p5716
sS'2134'
p5717
S'Weird Science (1985)'
p5718
sS'2135'
p5719
S'Doctor Dolittle (1967)'
p5720
sS'2132'
p5721
S"Who's Afraid of Virginia Woolf? (1966)"
p5722
sS'2133'
p5723
S'Adventures in Babysitting (1987)'
p5724
sS'2130'
p5725
S'Atlantic City (1980)'
p5726
sS'2131'
p5727
S'Autumn Sonata (H\xf6stsonaten ) (1978)'
p5728
sS'951'
p5729
S'His Girl Friday (1940)'
p5730
sS'950'
p5731
S'Thin Man, The (1934)'
p5732
sS'953'
p5733
S"It's a Wonderful Life (1946)"
p5734
sS'952'
p5735
S'Around the World in 80 Days (1956)'
p5736
sS'955'
p5737
S'Bringing Up Baby (1938)'
p5738
sS'954'
p5739
S'Mr. Smith Goes to Washington (1939)'
p5740
sS'957'
p5741
S'Scarlet Letter, The (1926)'
p5742
sS'956'
p5743
S'Penny Serenade (1941)'
p5744
sS'1442'
p5745
S'Prefontaine (1997)'
p5746
sS'477'
p5747
S"What's Love Got to Do with It? (1993)"
p5748
sS'2648'
p5749
S'Frankenstein (1931)'
p5750
sS'2649'
p5751
S'Son of Frankenstein (1939)'
p5752
sS'2640'
p5753
S'Superman (1978)'
p5754
sS'2641'
p5755
S'Superman II (1980)'
p5756
sS'2642'
p5757
S'Superman III (1983)'
p5758
sS'2643'
p5759
S'Superman IV: The Quest for Peace (1987)'
p5760
sS'2644'
p5761
S'Dracula (1931)'
p5762
sS'2645'
p5763
S'Dracula (1958)'
p5764
sS'2646'
p5765
S'House of Dracula (1945)'
p5766
sS'2647'
p5767
S'House of Frankenstein (1944)'
p5768
sS'3429'
p5769
S'Creature Comforts (1990)'
p5770
sS'3428'
p5771
S'Champ, The (1979)'
p5772
sS'3423'
p5773
S'School Daze (1988)'
p5774
sS'3422'
p5775
S"She's Gotta Have It (1986)"
p5776
sS'3421'
p5777
S'Animal House (1978)'
p5778
sS'3420'
p5779
S'...And Justice for All (1979)'
p5780
sS'3427'
p5781
S"Coogan's Bluff (1968)"
p5782
sS'3426'
p5783
S'Jungle Fever (1991)'
p5784
sS'3425'
p5785
S"Mo' Better Blues (1990)"
p5786
sS'3424'
p5787
S'Do the Right Thing (1989)'
p5788
sS'2002'
p5789
S'Lethal Weapon 3 (1992)'
p5790
sS'2003'
p5791
S'Gremlins (1984)'
p5792
sS'2000'
p5793
S'Lethal Weapon (1987)'
p5794
sS'2001'
p5795
S'Lethal Weapon 2 (1989)'
p5796
sS'2006'
p5797
S'Mask of Zorro, The (1998)'
p5798
sS'1440'
p5799
S'Amos & Andrew (1993)'
p5800
sS'2004'
p5801
S'Gremlins 2: The New Batch (1990)'
p5802
sS'2005'
p5803
S'Goonies, The (1985)'
p5804
sS'3901'
p5805
S'Duets (2000)'
p5806
sS'3033'
p5807
S'Spaceballs (1987)'
p5808
sS'2008'
p5809
S'This World, Then the Fireworks (1996)'
p5810
sS'2009'
p5811
S'Soylent Green (1973)'
p5812
sS'2034'
p5813
S'Black Hole, The (1979)'
p5814
sS'3331'
p5815
S'My Tutor (1983)'
p5816
sS'2852'
p5817
S"Soldier's Story, A (1984)"
p5818
sS'3026'
p5819
S'Slaughterhouse (1987)'
p5820
sS'3557'
p5821
S'Jennifer 8 (1992)'
p5822
sS'3197'
p5823
S'Presidio, The (1988)'
p5824
sS'3555'
p5825
S'U-571 (2000)'
p5826
sS'3554'
p5827
S'Love and Basketball (2000)'
p5828
sS'3553'
p5829
S'Gossip (2000)'
p5830
sS'3552'
p5831
S'Caddyshack (1980)'
p5832
sS'3551'
p5833
S'Marathon Man (1976)'
p5834
sS'3550'
p5835
S'Hunger, The (1983)'
p5836
sS'3559'
p5837
S'Limelight (1952)'
p5838
sS'3558'
p5839
S'Law, The (Le Legge) (1958)'
p5840
sS'667'
p5841
S'Bloodsport 2 (1995)'
p5842
sS'666'
p5843
S'All Things Fair (1996)'
p5844
sS'2176'
p5845
S'Rope (1948)'
p5846
sS'1261'
p5847
S'Evil Dead II (Dead By Dawn) (1987)'
p5848
sS'2177'
p5849
S'Family Plot (1976)'
p5850
sS'2910'
p5851
S"Ennui, L' (1998)"
p5852
sS'2911'
p5853
S'Grandfather, The (El Abuelo) (1998)'
p5854
sS'1799'
p5855
S'Suicide Kings (1997)'
p5856
sS'1260'
p5857
S'M (1931)'
p5858
sS'2914'
p5859
S'Molly (1999)'
p5860
sS'2915'
p5861
S'Risky Business (1983)'
p5862
sS'719'
p5863
S'Multiplicity (1996)'
p5864
sS'718'
p5865
S'Visitors, The (Les Visiteurs) (1993)'
p5866
sS'717'
p5867
S'Mouth to Mouth (Boca a boca) (1995)'
p5868
sS'716'
p5869
S'Switchblade Sisters (1975)'
p5870
sS'715'
p5871
S'Horseman on the Roof, The (Hussard sur le toit, Le) (1995)'
p5872
sS'714'
p5873
S'Dead Man (1995)'
p5874
sS'713'
p5875
S'Of Love and Shadows (1994)'
p5876
sS'712'
p5877
S'Captives (1994)'
p5878
sS'711'
p5879
S'Flipper (1996)'
p5880
sS'710'
p5881
S'Celtic Pride (1996)'
p5882
sS'661'
p5883
S'James and the Giant Peach (1996)'
p5884
sS'660'
p5885
S'August (1996)'
p5886
sS'2178'
p5887
S'Frenzy (1972)'
p5888
sS'1069'
p5889
S'Murder, My Sweet (1944)'
p5890
sS'1068'
p5891
S'Crossfire (1947)'
p5892
sS'2179'
p5893
S'Topaz (1969)'
p5894
sS'1061'
p5895
S'Sleepers (1996)'
p5896
sS'1060'
p5897
S'Swingers (1996)'
p5898
sS'1063'
p5899
S'Johns (1996)'
p5900
sS'1062'
p5901
S'Sunchaser, The (1996)'
p5902
sS'1065'
p5903
S'Woman in Question, The (1950)'
p5904
sS'1064'
p5905
S'Aladdin and the King of Thieves (1996)'
p5906
sS'1067'
p5907
S'Damsel in Distress, A (1937)'
p5908
sS'1066'
p5909
S'Shall We Dance? (1937)'
p5910
sS'3023'
p5911
S'My Best Girl (1927)'
p5912
sS'1669'
p5913
S'Tango Lesson, The (1997)'
p5914
sS'1668'
p5915
S'One Night Stand (1997)'
p5916
sS'1667'
p5917
S'Mad City (1997)'
p5918
sS'1666'
p5919
S'Hugo Pool (1997)'
p5920
sS'1665'
p5921
S'Bean (1997)'
p5922
sS'1664'
p5923
S'N\xe9nette et Boni (1996)'
p5924
sS'1663'
p5925
S'Stripes (1981)'
p5926
sS'1662'
p5927
S'Gang Related (1997)'
p5928
sS'1661'
p5929
S'Switchback (1997)'
p5930
sS'1660'
p5931
S"Eve's Bayou (1997)"
p5932
sS'591'
p5933
S'Tough and Deadly (1995)'
p5934
sS'590'
p5935
S'Dances with Wolves (1990)'
p5936
sS'593'
p5937
S'Silence of the Lambs, The (1991)'
p5938
sS'592'
p5939
S'Batman (1989)'
p5940
sS'595'
p5941
S'Beauty and the Beast (1991)'
p5942
sS'594'
p5943
S'Snow White and the Seven Dwarfs (1937)'
p5944
sS'597'
p5945
S'Pretty Woman (1990)'
p5946
sS'596'
p5947
S'Pinocchio (1940)'
p5948
sS'599'
p5949
S'Wild Bunch, The (1969)'
p5950
sS'598'
p5951
S'Window to Paris (1994)'
p5952
sS'1089'
p5953
S'Reservoir Dogs (1992)'
p5954
sS'1088'
p5955
S'Dirty Dancing (1987)'
p5956
sS'3140'
p5957
S'Three Ages, The (1923)'
p5958
sS'3022'
p5959
S'General, The (1927)'
p5960
sS'3142'
p5961
S'U2: Rattle and Hum (1988)'
p5962
sS'3143'
p5963
S'Hell in the Pacific (1968)'
p5964
sS'2828'
p5965
S'Dudley Do-Right (1999)'
p5966
sS'2829'
p5967
S'Muse, The (1999)'
p5968
sS'3146'
p5969
S'Deuce Bigalow: Male Gigolo (1999)'
p5970
sS'3147'
p5971
S'Green Mile, The (1999)'
p5972
sS'2824'
p5973
S'On the Ropes (1999)'
p5974
sS'2825'
p5975
S'Rosie (1998)'
p5976
sS'2826'
p5977
S'13th Warrior, The (1999)'
p5978
sS'2827'
p5979
S"Astronaut's Wife, The (1999)"
p5980
sS'2820'
p5981
S'Hamlet (1964)'
p5982
sS'2821'
p5983
S'Male and Female (1919)'
p5984
sS'2822'
p5985
S'Medicine Man (1992)'
p5986
sS'2823'
p5987
S'Spiders, The (Die Spinnen, 1. Teil: Der Goldene See) (1919)'
p5988
sS'3386'
p5989
S'JFK (1991)'
p5990
sS'3387'
p5991
S"Who's Harry Crumb? (1989)"
p5992
sS'3384'
p5993
S'Taking of Pelham One Two Three, The (1974)'
p5994
sS'3385'
p5995
S'Volunteers (1985)'
p5996
sS'3382'
p5997
S'Song of Freedom (1936)'
p5998
sS'3383'
p5999
S'Big Fella (1937)'
p6000
sS'3380'
p6001
S'Railroaded! (1947)'
p6002
sS'3381'
p6003
S'Slaves to the Underground (1997)'
p6004
sS'3388'
p6005
S'Harry and the Hendersons (1987)'
p6006
sS'3389'
p6007
S"Let's Get Harry (1986)"
p6008
sS'1409'
p6009
S'Michael (1996)'
p6010
sS'1408'
p6011
S'Last of the Mohicans, The (1992)'
p6012
sS'1401'
p6013
S'Ghosts of Mississippi (1996)'
p6014
sS'1400'
p6015
S'Somebody is Waiting (1996)'
p6016
sS'1407'
p6017
S'Scream (1996)'
p6018
sS'1406'
p6019
S'C\xe9r\xe9monie, La (1995)'
p6020
sS'1405'
p6021
S'Beavis and Butt-head Do America (1996)'
p6022
sS'1404'
p6023
S'Night Falls on Manhattan (1997)'
p6024
sS'1546'
p6025
S'Schizopolis (1996)'
p6026
sS'449'
p6027
S'Fear of a Black Hat (1993)'
p6028
sS'448'
p6029
S'Fearless (1993)'
p6030
sS'1339'
p6031
S"Bram Stoker's Dracula (1992)"
p6032
sS'1547'
p6033
S'Shiloh (1997)'
p6034
sS'443'
p6035
S'Endless Summer 2, The (1994)'
p6036
sS'442'
p6037
S'Demolition Man (1993)'
p6038
sS'441'
p6039
S'Dazed and Confused (1993)'
p6040
sS'440'
p6041
S'Dave (1993)'
p6042
sS'447'
p6043
S'Favor, The (1994)'
p6044
sS'446'
p6045
S'Farewell My Concubine (1993)'
p6046
sS'445'
p6047
S'Fatal Instinct (1993)'
p6048
sS'444'
p6049
S'Even Cowgirls Get the Blues (1993)'
p6050
sS'1520'
p6051
S'Commandments (1997)'
p6052
sS'1542'
p6053
S'Brassed Off (1996)'
p6054
sS'1543'
p6055
S'Designated Mourner, The (1997)'
p6056
sS'3261'
p6057
S'Singles (1992)'
p6058
sS'39'
p6059
S'Clueless (1995)'
p6060
sS'38'
p6061
S'It Takes Two (1995)'
p6062
sS'3260'
p6063
S'Howards End (1992)'
p6064
sS'33'
p6065
S'Wings of Courage (1995)'
p6066
sS'32'
p6067
S'Twelve Monkeys (1995)'
p6068
sS'31'
p6069
S'Dangerous Minds (1995)'
p6070
sS'30'
p6071
S'Shanghai Triad (Yao a yao yao dao waipo qiao) (1995)'
p6072
sS'37'
p6073
S'Across the Sea of Time (1995)'
p6074
sS'36'
p6075
S'Dead Man Walking (1995)'
p6076
sS'35'
p6077
S'Carrington (1995)'
p6078
sS'34'
p6079
S'Babe (1995)'
p6080
sS'641'
p6081
S'Little Indian, Big City (Un indien dans la ville) (1994)'
p6082
sS'640'
p6083
S'Diabolique (1996)'
p6084
sS'643'
p6085
S'Peanuts - Die Bank zahlt alles (1996)'
p6086
sS'642'
p6087
S'Roula (1995)'
p6088
sS'645'
p6089
S'Nelly & Monsieur Arnaud (1995)'
p6090
sS'644'
p6091
S'Happy Weekend (1996)'
p6092
sS'647'
p6093
S'Courage Under Fire (1996)'
p6094
sS'1246'
p6095
S'Dead Poets Society (1989)'
p6096
sS'649'
p6097
S'Cold Fever (\xc1 k\xf6ldum klaka) (1994)'
p6098
sS'1248'
p6099
S'Touch of Evil (1958)'
p6100
sS'3098'
p6101
S'Natural, The (1984)'
p6102
sS'2496'
p6103
S'Blast from the Past (1999)'
p6104
sS'1539'
p6105
S'Twin Town (1997)'
p6106
sS'1538'
p6107
S'Second Jungle Book: Mowgli & Baloo, The (1997)'
p6108
sS'339'
p6109
S'While You Were Sleeping (1995)'
p6110
sS'338'
p6111
S'Virtuosity (1995)'
p6112
sS'335'
p6113
S'Underneath, The (1995)'
p6114
sS'334'
p6115
S'Vanya on 42nd Street (1994)'
p6116
sS'337'
p6117
S"What's Eating Gilbert Grape (1993)"
p6118
sS'336'
p6119
S'Walking Dead, The (1995)'
p6120
sS'331'
p6121
S'Tom & Viv (1994)'
p6122
sS'330'
p6123
S'Tales from the Hood (1995)'
p6124
sS'333'
p6125
S'Tommy Boy (1995)'
p6126
sS'332'
p6127
S'Village of the Damned (1995)'
p6128
sS'1026'
p6129
S'So Dear to My Heart (1949)'
p6130
sS'3377'
p6131
S'Hangmen Also Die (1943)'
p6132
sS'3898'
p6133
S'Bait (2000)'
p6134
sS'3899'
p6135
S'Circus (2000)'
p6136
sS'3892'
p6137
S'Anatomy (Anatomie) (2000)'
p6138
sS'3893'
p6139
S'Nurse Betty (2000)'
p6140
sS'3890'
p6141
S'Back Stage (2000)'
p6142
sS'3891'
p6143
S'Turn It Up (2000)'
p6144
sS'3896'
p6145
S'Way of the Gun, The (2000)'
p6146
sS'3897'
p6147
S'Almost Famous (2000)'
p6148
sS'3894'
p6149
S'Solas (1999)'
p6150
sS'2118'
p6151
S'Dead Zone, The (1983)'
p6152
sS'3467'
p6153
S'Hud (1963)'
p6154
sS'3466'
p6155
S'Heart and Souls (1993)'
p6156
sS'3195'
p6157
S'Tess of the Storm Country (1922)'
p6158
sS'3464'
p6159
S'Solar Crisis (1993)'
p6160
sS'8'
p6161
S'Tom and Huck (1995)'
p6162
sS'3463'
p6163
S'Last Resort (1994)'
p6164
sS'2119'
p6165
S'Maximum Overdrive (1986)'
p6166
sS'3462'
p6167
S'Modern Times (1936)'
p6168
sS'3461'
p6169
S'Lord of the Flies (1963)'
p6170
sS'3460'
p6171
S'Hillbillys in a Haunted House (1967)'
p6172
sS'3375'
p6173
S'Destination Moon (1950)'
p6174
sS'3704'
p6175
S'Mad Max Beyond Thunderdome (1985)'
p6176
sS'3200'
p6177
S'Last Detail, The (1973)'
p6178
sS'1462'
p6179
S'Unforgotten: Twenty-Five Years After Willowbrook (1996)'
p6180
sS'2854'
p6181
S"Don't Look in the Basement! (1973)"
p6182
sS'3435'
p6183
S'Double Indemnity (1944)'
p6184
sS'3638'
p6185
S'Moonraker (1979)'
p6186
sS'3639'
p6187
S'Man with the Golden Gun, The (1974)'
p6188
sS'3636'
p6189
S"Those Who Love Me Can Take the Train (Ceux qui m'aiment prendront le train) (1998)"
p6190
sS'3637'
p6191
S'Vagabond (Sans toit ni loi) (1985)'
p6192
sS'3634'
p6193
S'Seven Days in May (1964)'
p6194
sS'3635'
p6195
S'Spy Who Loved Me, The (1977)'
p6196
sS'3632'
p6197
S'Monsieur Verdoux (1947)'
p6198
sS'3633'
p6199
S"On Her Majesty's Secret Service (1969)"
p6200
sS'3630'
p6201
S"House of Exorcism, The (La Casa dell'esorcismo) (1974)"
p6202
sS'3631'
p6203
S"It's in the Water (1998)"
p6204
sS'3469'
p6205
S'Inherit the Wind (1960)'
p6206
sS'3468'
p6207
S'Hustler, The (1961)'
p6208
sS'1991'
p6209
S"Child's Play (1988)"
p6210
sS'2345'
p6211
S'Desert Bloom (1986)'
p6212
sS'2344'
p6213
S'Runaway Train (1985)'
p6214
sS'2347'
p6215
S'Pope of Greenwich Village, The (1984)'
p6216
sS'2346'
p6217
S'Stepford Wives, The (1975)'
p6218
sS'2341'
p6219
S'Dancing at Lughnasa (1998)'
p6220
sS'2340'
p6221
S'Meet Joe Black (1998)'
p6222
sS'2343'
p6223
S'Naked Man, The (1998)'
p6224
sS'2342'
p6225
S'Hard Core Logo (1996)'
p6226
sS'2349'
p6227
S'Mona Lisa (1986)'
p6228
sS'2348'
p6229
S'Sid and Nancy (1986)'
p6230
sS'3253'
p6231
S"Wayne's World (1992)"
p6232
sS'3708'
p6233
S'Firestarter (1984)'
p6234
sS'3709'
p6235
S'Sleepwalkers (1992)'
p6236
sS'1889'
p6237
S'Insomnia (1997)'
p6238
sS'1888'
p6239
S'Hope Floats (1998)'
p6240
sS'1887'
p6241
S'Almost Heroes (1998)'
p6242
sS'1886'
p6243
S'I Got the Hook Up (1998)'
p6244
sS'1885'
p6245
S'Opposite of Sex, The (1998)'
p6246
sS'1884'
p6247
S'Fear and Loathing in Las Vegas (1998)'
p6248
sS'1883'
p6249
S'Bulworth (1998)'
p6250
sS'1882'
p6251
S'Godzilla (1998)'
p6252
sS'1881'
p6253
S'Quest for Camelot (1998)'
p6254
sS'1880'
p6255
S'Lawn Dogs (1997)'
p6256
sS'2121'
p6257
S'Cujo (1983)'
p6258
sS'2120'
p6259
S'Needful Things (1993)'
p6260
sS'2123'
p6261
S'All Dogs Go to Heaven (1989)'
p6262
sS'2122'
p6263
S'Children of the Corn (1984)'
p6264
sS'2125'
p6265
S'Ever After: A Cinderella Story (1998)'
p6266
sS'2124'
p6267
S'Addams Family, The (1991)'
p6268
sS'948'
p6269
S'Giant (1956)'
p6270
sS'949'
p6271
S'East of Eden (1955)'
p6272
sS'946'
p6273
S'To Be or Not to Be (1942)'
p6274
sS'947'
p6275
S'My Man Godfrey (1936)'
p6276
sS'944'
p6277
S'Lost Horizon (1937)'
p6278
sS'945'
p6279
S'Top Hat (1935)'
p6280
sS'942'
p6281
S'Laura (1944)'
p6282
sS'943'
p6283
S'Ghost and Mrs. Muir, The (1947)'
p6284
sS'940'
p6285
S'Adventures of Robin Hood, The (1938)'
p6286
sS'941'
p6287
S'Mark of Zorro, The (1940)'
p6288
sS'3038'
p6289
S'Face in the Crowd, A (1957)'
p6290
sS'2410'
p6291
S'Rocky III (1982)'
p6292
sS'2659'
p6293
S'It Came from Hollywood (1982)'
p6294
sS'2658'
p6295
S'Flying Saucer, The (1950)'
p6296
sS'2653'
p6297
S'Son of Dracula (1943)'
p6298
sS'2652'
p6299
S'Curse of Frankenstein, The (1957)'
p6300
sS'2651'
p6301
S'Frankenstein Meets the Wolf Man (1943)'
p6302
sS'2650'
p6303
S'Ghost of Frankenstein, The (1942)'
p6304
sS'2657'
p6305
S'Rocky Horror Picture Show, The (1975)'
p6306
sS'2656'
p6307
S'Tarantula (1955)'
p6308
sS'2655'
p6309
S'Howling II: Your Sister Is a Werewolf (1985)'
p6310
sS'2654'
p6311
S'Wolf Man, The (1941)'
p6312
sS'133'
p6313
S'Nueba Yol (1995)'
p6314
sS'132'
p6315
S'Jade (1995)'
p6316
sS'131'
p6317
S'Frankie Starlight (1995)'
p6318
sS'130'
p6319
S'Angela (1995)'
p6320
sS'137'
p6321
S'Man of the Year (1995)'
p6322
sS'136'
p6323
S'From the Journals of Jean Seberg (1995)'
p6324
sS'135'
p6325
S'Down Periscope (1996)'
p6326
sS'134'
p6327
S'Sonic Outlaws (1995)'
p6328
sS'139'
p6329
S'Target (1995)'
p6330
sS'138'
p6331
S'Neon Bible, The (1995)'
p6332
sS'3418'
p6333
S'Thelma & Louise (1991)'
p6334
sS'3419'
p6335
S'Something for Everyone (1970)'
p6336
sS'3518'
p6337
S'End of Violence, The (1997)'
p6338
sS'2019'
p6339
S'Seven Samurai (The Magnificent Seven) (Shichinin no samurai) (1954)'
p6340
sS'2018'
p6341
S'Bambi (1942)'
p6342
sS'2015'
p6343
S'Absent Minded Professor, The (1961)'
p6344
sS'2014'
p6345
S'Freaky Friday (1977)'
p6346
sS'2017'
p6347
S'Babes in Toyland (1961)'
p6348
sS'2016'
p6349
S'Apple Dumpling Gang Rides Again, The (1979)'
p6350
sS'2011'
p6351
S'Back to the Future Part II (1989)'
p6352
sS'2010'
p6353
S'Metropolis (1926)'
p6354
sS'2013'
p6355
S'Poseidon Adventure, The (1972)'
p6356
sS'2012'
p6357
S'Back to the Future Part III (1990)'
p6358
sS'3277'
p6359
S'Beloved/Friend (Amigo/Amado) (1999)'
p6360
sS'1793'
p6361
S'Welcome to Woop-Woop (1997)'
p6362
sS'3562'
p6363
S'Committed (2000)'
p6364
sS'3563'
p6365
S'Crow: Salvation, The (2000)'
p6366
sS'3560'
p6367
S'Phantom Love (Ai No Borei) (1978)'
p6368
sS'3561'
p6369
S"Stacy's Knights (1982)"
p6370
sS'3566'
p6371
S'Big Kahuna, The (2000)'
p6372
sS'3567'
p6373
S'Bossa Nova (1999)'
p6374
sS'3564'
p6375
S'Flintstones in Viva Rock Vegas, The (2000)'
p6376
sS'3565'
p6377
S'Where the Heart Is (2000)'
p6378
sS'3034'
p6379
S'Robin Hood (1973)'
p6380
sS'3568'
p6381
S'Smiling Fish and Goat on Fire (1999)'
p6382
sS'2112'
p6383
S'Grand Canyon (1991)'
p6384
sS'3000'
p6385
S'Princess Mononoke, The (Mononoke Hime) (1997)'
p6386
sS'2903'
p6387
S'Psycho III (1986)'
p6388
sS'2902'
p6389
S'Psycho II (1983)'
p6390
sS'2901'
p6391
S'Phantasm (1979)'
p6392
sS'2900'
p6393
S'Monkey Shines (1988)'
p6394
sS'708'
p6395
S'Truth About Cats & Dogs, The (1996)'
p6396
sS'709'
p6397
S'Oliver & Company (1988)'
p6398
sS'2905'
p6399
S'Sanjuro (1962)'
p6400
sS'2904'
p6401
S'Rain (1932)'
p6402
sS'704'
p6403
S'Quest, The (1996)'
p6404
sS'705'
p6405
S'Cosi (1996)'
p6406
sS'706'
p6407
S'Sunset Park (1996)'
p6408
sS'707'
p6409
S'Mulholland Falls (1996)'
p6410
sS'700'
p6411
S'Angus (1995)'
p6412
sS'701'
p6413
S'Daens (1992)'
p6414
sS'702'
p6415
S'Faces (1968)'
p6416
sS'703'
p6417
S'Boys (1996)'
p6418
sS'3037'
p6419
S'Little Big Man (1970)'
p6420
sS'88'
p6421
S'Black Sheep (1996)'
p6422
sS'89'
p6423
S'Nick of Time (1995)'
p6424
sS'3926'
p6425
S'Voyage to the Bottom of the Sea (1961)'
p6426
sS'82'
p6427
S"Antonia's Line (Antonia) (1995)"
p6428
sS'83'
p6429
S'Once Upon a Time... When We Were Colored (1995)'
p6430
sS'80'
p6431
S'White Balloon, The (Badkonake Sefid ) (1995)'
p6432
sS'81'
p6433
S"Things to Do in Denver when You're Dead (1995)"
p6434
sS'86'
p6435
S'White Squall (1996)'
p6436
sS'87'
p6437
S'Dunston Checks In (1996)'
p6438
sS'84'
p6439
S'Last Summer in the Hamptons (1995)'
p6440
sS'85'
p6441
S'Angels and Insects (1995)'
p6442
sS'3036'
p6443
S'Quest for Fire (1981)'
p6444
sS'1658'
p6445
S'Life Less Ordinary, A (1997)'
p6446
sS'1659'
p6447
S'Hurricane Streets (1998)'
p6448
sS'1652'
p6449
S'Year of the Horse (1997)'
p6450
sS'1388'
p6451
S'Jaws 2 (1978)'
p6452
sS'1650'
p6453
S'Washington Square (1997)'
p6454
sS'1651'
p6455
S'Telling Lies in America (1997)'
p6456
sS'1656'
p6457
S'Swept from the Sea (1997)'
p6458
sS'1657'
p6459
S'Wonderland (1997)'
p6460
sS'1654'
p6461
S'FairyTale: A True Story (1997)'
p6462
sS'1389'
p6463
S'Jaws 3-D (1983)'
p6464
sS'586'
p6465
S'Home Alone (1990)'
p6466
sS'587'
p6467
S'Ghost (1990)'
p6468
sS'584'
p6469
S"I Don't Want to Talk About It (De eso no se habla) (1993)"
p6470
sS'585'
p6471
S'Brady Bunch Movie, The (1995)'
p6472
sS'582'
p6473
S'Metisse (Caf\xe9 au Lait) (1993)'
p6474
sS'583'
p6475
S'Dear Diary (Caro Diario) (1994)'
p6476
sS'580'
p6477
S'Princess Caraboo (1994)'
p6478
sS'581'
p6479
S'Celluloid Closet, The (1995)'
p6480
sS'1984'
p6481
S'Halloween III: Season of the Witch (1983)'
p6482
sS'588'
p6483
S'Aladdin (1992)'
p6484
sS'589'
p6485
S'Terminator 2: Judgment Day (1991)'
p6486
sS'3153'
p6487
S'7th Voyage of Sinbad, The (1958)'
p6488
sS'3152'
p6489
S'Last Picture Show, The (1971)'
p6490
sS'3151'
p6491
S'Bat Whispers, The (1930)'
p6492
sS'1633'
p6493
S"Ulee's Gold (1997)"
p6494
sS'3157'
p6495
S'Stuart Little (1999)'
p6496
sS'3156'
p6497
S'Bicentennial Man (1999)'
p6498
sS'2839'
p6499
S'West Beirut (West Beyrouth) (1998)'
p6500
sS'2838'
p6501
S'I Woke Up Early the Day I Died (1998)'
p6502
sS'2837'
p6503
S'Bedrooms & Hallways (1998)'
p6504
sS'2836'
p6505
S'Outside Providence (1999)'
p6506
sS'2835'
p6507
S'Chill Factor (1999)'
p6508
sS'2834'
p6509
S'Very Thought of You, The (1998)'
p6510
sS'2833'
p6511
S'Lucie Aubrac (1997)'
p6512
sS'2832'
p6513
S'Lost Son, The (1999)'
p6514
sS'2831'
p6515
S'Dog of Flanders, A (1999)'
p6516
sS'1983'
p6517
S'Halloween II (1981)'
p6518
sS'1436'
p6519
S'Falling in Love Again (1980)'
p6520
sS'1437'
p6521
S'Cement Garden, The (1993)'
p6522
sS'1434'
p6523
S'Stranger, The (1994)'
p6524
sS'3392'
p6525
S'She-Devil (1989)'
p6526
sS'1432'
p6527
S'Metro (1997)'
p6528
sS'1433'
p6529
S'Machine, The (1994)'
p6530
sS'1430'
p6531
S'Underworld (1997)'
p6532
sS'1431'
p6533
S'Beverly Hills Ninja (1997)'
p6534
sS'3399'
p6535
S'Sesame Street Presents Follow That Bird (1985)'
p6536
sS'418'
p6537
S'Being Human (1993)'
p6538
sS'3213'
p6539
S'Batman: Mask of the Phantasm (1993)'
p6540
sS'1438'
p6541
S"Dante's Peak (1997)"
p6542
sS'419'
p6543
S'Beverly Hillbillies, The (1993)'
p6544
sS'1541'
p6545
S'Addicted to Love (1997)'
p6546
sS'1348'
p6547
S'Nosferatu (Nosferatu, eine Symphonie des Grauens) (1922)'
p6548
sS'459'
p6549
S'Getaway, The (1994)'
p6550
sS'450'
p6551
S'With Honors (1994)'
p6552
sS'451'
p6553
S'Flesh and Bone (1993)'
p6554
sS'1342'
p6555
S'Candyman (1992)'
p6556
sS'453'
p6557
S'For Love or Money (1993)'
p6558
sS'1344'
p6559
S'Cape Fear (1962)'
p6560
sS'1345'
p6561
S'Carrie (1976)'
p6562
sS'1346'
p6563
S'Cat People (1982)'
p6564
sS'1347'
p6565
S'Nightmare on Elm Street, A (1984)'
p6566
sS'3702'
p6567
S'Mad Max (1979)'
p6568
sS'3703'
p6569
S'Mad Max 2 (a.k.a. The Road Warrior) (1981)'
p6570
sS'3032'
p6571
S'Omega Man, The (1971)'
p6572
sS'3701'
p6573
S'Alien Nation (1988)'
p6574
sS'3263'
p6575
S"White Men Can't Jump (1992)"
p6576
sS'3368'
p6577
S'Big Country, The (1958)'
p6578
sS'3706'
p6579
S'Angel Heart (1987)'
p6580
sS'3707'
p6581
S'Nine 1/2 Weeks (1986)'
p6582
sS'656'
p6583
S'Eddie (1996)'
p6584
sS'657'
p6585
S'Yankee Zulu (1994)'
p6586
sS'654'
p6587
S'Und keiner weint mir nach (1996)'
p6588
sS'655'
p6589
S'Mutters Courage (1995)'
p6590
sS'652'
p6591
S'301, 302 (1995)'
p6592
sS'653'
p6593
S'Dragonheart (1996)'
p6594
sS'650'
p6595
S'Moll Flanders (1996)'
p6596
sS'651'
p6597
S'Superweib, Das (1996)'
p6598
sS'3085'
p6599
S'Living Dead Girl, The (La Morte Vivante) (1982)'
p6600
sS'3084'
p6601
S'Home Page (1999)'
p6602
sS'1508'
p6603
S'Traveller (1997)'
p6604
sS'1509'
p6605
S'All Over Me (1997)'
p6606
sS'3081'
p6607
S'Sleepy Hollow (1999)'
p6608
sS'3080'
p6609
S'Goodbye, 20th Century (Zbogum na dvadesetiot vek) (1998)'
p6610
sS'658'
p6611
S"Billy's Holiday (1995)"
p6612
sS'659'
p6613
S'Purple Noon (1960)'
p6614
sS'3943'
p6615
S'Bamboozled (2000)'
p6616
sS'3944'
p6617
S'Bootmen (2000)'
p6618
sS'3945'
p6619
S'Digimon: The Movie (2000)'
p6620
sS'3946'
p6621
S'Get Carter (2000)'
p6622
sS'3947'
p6623
S'Get Carter (1971)'
p6624
sS'1992'
p6625
S"Child's Play 2 (1990)"
p6626
sS'3884'
p6627
S'Crew, The (2000)'
p6628
sS'3887'
p6629
S'Went to Coney Island on a Mission From God... Be Back by Five (1998)'
p6630
sS'3886'
p6631
S'Steal This Movie! (2000)'
p6632
sS'3881'
p6633
S'Bittersweet Motel (2000)'
p6634
sS'2127'
p6635
S'First Love, Last Rites (1997)'
p6636
sS'3883'
p6637
S'Catfish in Black Bean Sauce (2000)'
p6638
sS'3882'
p6639
S'Bring It On (2000)'
p6640
sS'2126'
p6641
S'Snake Eyes (1998)'
p6642
sS'3889'
p6643
S'Highlander: Endgame (2000)'
p6644
sS'3888'
p6645
S'Skipped Parts (2000)'
p6646
sS'2129'
p6647
S'Saltmen of Tibet, The (1997)'
p6648
sS'2128'
p6649
S'Safe Men (1998)'
p6650
sS'2815'
p6651
S'Iron Eagle (1986)'
p6652
sS'2814'
p6653
S'Bat, The (1959)'
p6654
sS'322'
p6655
S'Swimming with Sharks (1995)'
p6656
sS'320'
p6657
S'Suture (1993)'
p6658
sS'321'
p6659
S'Strawberry and Chocolate (Fresa y chocolate) (1993)'
p6660
sS'326'
p6661
S'To Live (Huozhe) (1994)'
p6662
sS'327'
p6663
S'Tank Girl (1995)'
p6664
sS'324'
p6665
S'Sum of Us, The (1994)'
p6666
sS'325'
p6667
S"National Lampoon's Senior Trip (1995)"
p6668
sS'328'
p6669
S'Tales From the Crypt Presents: Demon Knight (1995)'
p6670
sS'329'
p6671
S'Star Trek: Generations (1994)'
p6672
sS'3365'
p6673
S'Searchers, The (1956)'
p6674
sS'3629'
p6675
S'Gold Rush, The (1925)'
p6676
sS'3628'
p6677
S'Flying Tigers (1942)'
p6678
sS'3621'
p6679
S'Possession (1981)'
p6680
sS'2819'
p6681
S'Three Days of the Condor (1975)'
p6682
sS'3623'
p6683
S'Mission: Impossible 2 (2000)'
p6684
sS'3622'
p6685
S'Twelve Chairs, The (1970)'
p6686
sS'3625'
p6687
S'Better Living Through Circuitry (1999)'
p6688
sS'3624'
p6689
S'Shanghai Noon (2000)'
p6690
sS'1340'
p6691
S'Bride of Frankenstein (1935)'
p6692
sS'2818'
p6693
S'Iron Eagle IV (1995)'
p6694
sS'2330'
p6695
S'Hands on a Hard Body (1996)'
p6696
sS'2331'
p6697
S'Living Out Loud (1998)'
p6698
sS'2332'
p6699
S'Belly (1998)'
p6700
sS'2333'
p6701
S'Gods and Monsters (1998)'
p6702
sS'2334'
p6703
S'Siege, The (1998)'
p6704
sS'2335'
p6705
S'Waterboy, The (1998)'
p6706
sS'2336'
p6707
S'Elizabeth (1998)'
p6708
sS'1594'
p6709
S'In the Company of Men (1997)'
p6710
sS'2338'
p6711
S'I Still Know What You Did Last Summer (1998)'
p6712
sS'2339'
p6713
S"I'll Be Home For Christmas (1998)"
p6714
sS'1341'
p6715
S'Burnt Offerings (1976)'
p6716
sS'3072'
p6717
S'Moonstruck (1987)'
p6718
sS'3073'
p6719
S'Sandpiper, The (1965)'
p6720
sS'1995'
p6721
S'Poltergeist II: The Other Side (1986)'
p6722
sS'2958'
p6723
S'Naturally Native (1998)'
p6724
sS'2959'
p6725
S'Fight Club (1999)'
p6726
sS'3715'
p6727
S'Burglar (1987)'
p6728
sS'3714'
p6729
S"Clara's Heart (1988)"
p6730
sS'3717'
p6731
S'Gone in 60 Seconds (2000)'
p6732
sS'3716'
p6733
S'Fatal Beauty (1987)'
p6734
sS'3711'
p6735
S'Sarafina! (1992)'
p6736
sS'3076'
p6737
S'Irma la Douce (1963)'
p6738
sS'3713'
p6739
S'Long Walk Home, The (1990)'
p6740
sS'3712'
p6741
S'Soapdish (1991)'
p6742
sS'1592'
p6743
S'Air Bud (1997)'
p6744
sS'3719'
p6745
S"Love's Labour's Lost (2000)"
p6746
sS'3718'
p6747
S'American Pimp (1999)'
p6748
sS'3078'
p6749
S'Liberty Heights (1999)'
p6750
sS'3079'
p6751
S'Mansfield Park (1999)'
p6752
sS'2488'
p6753
S'Peeping Tom (1960)'
p6754
sS'2489'
p6755
S'Spanish Fly (1998)'
p6756
sS'2486'
p6757
S'24-hour Woman (1998)'
p6758
sS'2487'
p6759
S'Blood, Guts, Bullets and Octane (1998)'
p6760
sS'2484'
p6761
S'Tinseltown (1998)'
p6762
sS'2485'
p6763
S"She's All That (1999)"
p6764
sS'2482'
p6765
S'Still Crazy (1998)'
p6766
sS'2483'
p6767
S'Day of the Beast, The (El D\xeda de la bestia) (1995)'
p6768
sS'2480'
p6769
S'Dry Cleaning (Nettoyage \xe0 sec) (1997)'
p6770
sS'1598'
p6771
S'Desperate Measures (1998)'
p6772
sS'3252'
p6773
S'Scent of a Woman (1992)'
p6774
sS'2248'
p6775
S'Say Anything... (1989)'
p6776
sS'2249'
p6777
S'My Blue Heaven (1990)'
p6778
sS'2244'
p6779
S'Allnighter, The (1987)'
p6780
sS'2245'
p6781
S'Working Girl (1988)'
p6782
sS'2246'
p6783
S'Stars and Bars (1988)'
p6784
sS'2247'
p6785
S'Married to the Mob (1988)'
p6786
sS'2240'
p6787
S'My Bodyguard (1980)'
p6788
sS'2241'
p6789
S'Class (1983)'
p6790
sS'2242'
p6791
S'Grandview, U.S.A. (1984)'
p6792
sS'2243'
p6793
S'Broadcast News (1987)'
p6794
sS'2464'
p6795
S'Trick or Treat (1986)'
p6796
sS'994'
p6797
S'Big Night (1996)'
p6798
sS'997'
p6799
S'Caught (1996)'
p6800
sS'996'
p6801
S'Last Man Standing (1996)'
p6802
sS'991'
p6803
S'Michael Collins (1996)'
p6804
sS'990'
p6805
S'Maximum Risk (1996)'
p6806
sS'993'
p6807
S'Infinity (1996)'
p6808
sS'992'
p6809
S"Rich Man's Wife, The (1996)"
p6810
sS'999'
p6811
S'2 Days in the Valley (1996)'
p6812
sS'998'
p6813
S'Set It Off (1996)'
p6814
sS'120'
p6815
S'Race the Sun (1996)'
p6816
sS'121'
p6817
S'Boys of St. Vincent, The (1993)'
p6818
sS'122'
p6819
S'Boomerang (1992)'
p6820
sS'123'
p6821
S'Chungking Express (1994)'
p6822
sS'124'
p6823
S"Star Maker, The (Uomo delle stelle, L') (1995)"
p6824
sS'125'
p6825
S'Flirting With Disaster (1996)'
p6826
sS'126'
p6827
S'NeverEnding Story III, The (1994)'
p6828
sS'127'
p6829
S'Silence of the Palace, The (Saimt el Qusur) (1994)'
p6830
sS'128'
p6831
S"Jupiter's Wife (1994)"
p6832
sS'129'
p6833
S'Pie in the Sky (1995)'
p6834
sS'3416'
p6835
S'Trial, The (Le Proc\xe8s) (1963)'
p6836
sS'3379'
p6837
S'On the Beach (1959)'
p6838
sS'3417'
p6839
S'Crimson Pirate, The (1952)'
p6840
sS'3378'
p6841
S'Ogre, The (Der Unhold) (1996)'
p6842
sS'3414'
p6843
S'Love Is a Many-Splendored Thing (1955)'
p6844
sS'2068'
p6845
S'Fanny and Alexander (1982)'
p6846
sS'2069'
p6847
S'Trip to Bountiful, The (1985)'
p6848
sS'2798'
p6849
S'Problem Child (1990)'
p6850
sS'2799'
p6851
S'Problem Child 2 (1991)'
p6852
sS'3376'
p6853
S'Fantastic Night, The (La Nuit Fantastique) (1949)'
p6854
sS'2060'
p6855
S'BASEketball (1998)'
p6856
sS'2061'
p6857
S'Full Tilt Boogie (1997)'
p6858
sS'2062'
p6859
S'Governess, The (1998)'
p6860
sS'2063'
p6861
S'Seventh Heaven (Le Septi\xe8me ciel) (1997)'
p6862
sS'2064'
p6863
S'Roger & Me (1989)'
p6864
sS'2065'
p6865
S'Purple Rose of Cairo, The (1985)'
p6866
sS'2066'
p6867
S'Out of the Past (1947)'
p6868
sS'2067'
p6869
S'Doctor Zhivago (1965)'
p6870
sS'3374'
p6871
S'Daughters of the Dust (1992)'
p6872
sS'3410'
p6873
S'Soft Fruit (1999)'
p6874
sS'3411'
p6875
S'Babymother (1998)'
p6876
sS'3255'
p6877
S'League of Their Own, A (1992)'
p6878
sS'3372'
p6879
S'Bridge at Remagen, The (1969)'
p6880
sS'3371'
p6881
S'Bound for Glory (1976)'
p6882
sS'3370'
p6883
S'Betrayed (1988)'
p6884
sS'3579'
p6885
S'I Dreamed of Africa (2000)'
p6886
sS'3578'
p6887
S'Gladiator (2000)'
p6888
sS'3575'
p6889
S'Defying Gravity (1997)'
p6890
sS'3574'
p6891
S'Carnosaur 3: Primal Species (1996)'
p6892
sS'3577'
p6893
S'Two Moon Juction (1988)'
p6894
sS'3576'
p6895
S'Hidden, The (1987)'
p6896
sS'3571'
p6897
S'Time Code (2000)'
p6898
sS'3570'
p6899
S'Last September, The (1999)'
p6900
sS'3573'
p6901
S'Carnosaur 2 (1995)'
p6902
sS'3572'
p6903
S'Carnosaur (1993)'
p6904
sS'2666'
p6905
S'It Conquered the World (1956)'
p6906
sS'2667'
p6907
S'Mole People, The (1956)'
p6908
sS'2664'
p6909
S'Invasion of the Body Snatchers (1956)'
p6910
sS'2665'
p6911
S'Earth Vs. the Flying Saucers (1956)'
p6912
sS'2662'
p6913
S'War of the Worlds, The (1953)'
p6914
sS'2663'
p6915
S'It Came from Beneath the Sea (1955)'
p6916
sS'2660'
p6917
S'Thing From Another World, The (1951)'
p6918
sS'2661'
p6919
S'It Came from Outer Space (1953)'
p6920
sS'1748'
p6921
S'Dark City (1998)'
p6922
sS'2668'
p6923
S'Swamp Thing (1982)'
p6924
sS'1749'
p6925
S'Leading Man, The (1996)'
p6926
sS'3668'
p6927
S'Romeo and Juliet (1968)'
p6928
sS'2938'
p6929
S'Man Facing Southeast (Hombre Mirando al Sudeste) (1986)'
p6930
sS'2939'
p6931
S'Niagara (1953)'
p6932
sS'2936'
p6933
S"Sullivan's Travels (1942)"
p6934
sS'2937'
p6935
S'Palm Beach Story, The (1942)'
p6936
sS'2934'
p6937
S'Love Bewitched, A (El Amor Brujo) (1986)'
p6938
sS'2935'
p6939
S'Lady Eve, The (1941)'
p6940
sS'2932'
p6941
S'Days of Heaven (1978)'
p6942
sS'2933'
p6943
S'Fire Within, The (Le Feu Follet) (1963)'
p6944
sS'2930'
p6945
S'Return with Honor (1998)'
p6946
sS'2931'
p6947
S'Time of the Gypsies (Dom za vesanje) (1989)'
p6948
sS'3799'
p6949
S'Pok\xe9mon the Movie 2000 (2000)'
p6950
sS'3595'
p6951
S'Held Up (2000)'
p6952
sS'1645'
p6953
S"Devil's Advocate, The (1997)"
p6954
sS'1644'
p6955
S'I Know What You Did Last Summer (1997)'
p6956
sS'1647'
p6957
S'Playing God (1997)'
p6958
sS'1646'
p6959
S'Rocket Man (1997)'
p6960
sS'1641'
p6961
S'Full Monty, The (1997)'
p6962
sS'1640'
p6963
S'How to Be a Player (1997)'
p6964
sS'1643'
p6965
S'Mrs. Brown (Her Majesty, Mrs. Brown) (1997)'
p6966
sS'1642'
p6967
S'Indian Summer (a.k.a. Alive & Kicking) (1996)'
p6968
sS'1649'
p6969
S'Fast, Cheap & Out of Control (1997)'
p6970
sS'1648'
p6971
S'House of Yes, The (1997)'
p6972
sS'1742'
p6973
S'Caught Up (1998)'
p6974
sS'3794'
p6975
S'Chuck & Buck (2000)'
p6976
sS'1743'
p6977
S'Arguing the World (1996)'
p6978
sS'579'
p6979
S'Scorta, La (1993)'
p6980
sS'578'
p6981
S'Hour of the Pig, The (1993)'
p6982
sS'573'
p6983
S'Ciao, Professore! (Io speriamo che me la cavo ) (1993)'
p6984
sS'572'
p6985
S'Foreign Student (1994)'
p6986
sS'571'
p6987
S'Wedding Gift, The (1994)'
p6988
sS'570'
p6989
S'Slingshot, The (K\xe5disbellan ) (1993)'
p6990
sS'577'
p6991
S'Andre (1994)'
p6992
sS'576'
p6993
S'Fausto (1993)'
p6994
sS'575'
p6995
S'Little Rascals, The (1994)'
p6996
sS'574'
p6997
S'Spanking the Monkey (1994)'
p6998
sS'2808'
p6999
S'Universal Soldier (1992)'
p7000
sS'2809'
p7001
S'Love Stinks (1999)'
p7002
sS'3168'
p7003
S'Easy Rider (1969)'
p7004
sS'3169'
p7005
S'Falcon and the Snowman, The (1984)'
p7006
sS'2802'
p7007
S'Tequila Sunrise (1988)'
p7008
sS'1209'
p7009
S'Once Upon a Time in the West (1969)'
p7010
sS'2800'
p7011
S'Little Nemo: Adventures in Slumberland (1992)'
p7012
sS'2801'
p7013
S'Oscar and Lucinda (a.k.a. Oscar & Lucinda) (1997)'
p7014
sS'2806'
p7015
S'Teaching Mrs. Tingle (1999)'
p7016
sS'2807'
p7017
S'Universal Soldier: The Return (1999)'
p7018
sS'2804'
p7019
S'Christmas Story, A (1983)'
p7020
sS'1208'
p7021
S'Apocalypse Now (1979)'
p7022
sS'1421'
p7023
S'Grateful Dead (1995)'
p7024
sS'1420'
p7025
S'Message to Love: The Isle of Wight Festival (1996)'
p7026
sS'1423'
p7027
S'Hearts and Minds (1996)'
p7028
sS'1422'
p7029
S'Murder at 1600 (1997)'
p7030
sS'1425'
p7031
S'Fierce Creatures (1997)'
p7032
sS'1424'
p7033
S'Inside (1996)'
p7034
sS'1427'
p7035
S'Turbulence (1997)'
p7036
sS'1426'
p7037
S'Zeus and Roxanne (1997)'
p7038
sS'1429'
p7039
S"Jackie Chan's First Strike (1996)"
p7040
sS'1428'
p7041
S'Angel Baby (1995)'
p7042
sS'3366'
p7043
S'Where Eagles Dare (1969)'
p7044
sS'3367'
p7045
S"Devil's Brigade, The (1968)"
p7046
sS'3360'
p7047
S'Hoosiers (1986)'
p7048
sS'2156'
p7049
S'Best Man, The (Il Testimone dello sposo) (1997)'
p7050
sS'3362'
p7051
S'Dog Day Afternoon (1975)'
p7052
sS'3363'
p7053
S'American Graffiti (1973)'
p7054
sS'731'
p7055
S"Heaven's Prisoners (1996)"
p7056
sS'730'
p7057
S'Low Life, The (1994)'
p7058
sS'733'
p7059
S'Rock, The (1996)'
p7060
sS'732'
p7061
S'Original Gangstas (1996)'
p7062
sS'735'
p7063
S'Cemetery Man (Dellamorte Dellamore) (1994)'
p7064
sS'734'
p7065
S'Getting Away With Murder (1996)'
p7066
sS'737'
p7067
S'Barb Wire (1996)'
p7068
sS'736'
p7069
S'Twister (1996)'
p7070
sS'739'
p7071
S'Honigmond (1996)'
p7072
sS'738'
p7073
S'Garcu, Le (1995)'
p7074
sS'2403'
p7075
S'First Blood (1982)'
p7076
sS'1359'
p7077
S'Jingle All the Way (1996)'
p7078
sS'1358'
p7079
S'Sling Blade (1996)'
p7080
sS'469'
p7081
S'House of the Spirits, The (1993)'
p7082
sS'468'
p7083
S'Englishman Who Went Up a Hill, But Came Down a Mountain, The (1995)'
p7084
sS'1353'
p7085
S'Mirror Has Two Faces, The (1996)'
p7086
sS'1352'
p7087
S'Albino Alligator (1996)'
p7088
sS'1351'
p7089
S'Blood & Wine (1997)'
p7090
sS'1350'
p7091
S'Omen, The (1976)'
p7092
sS'461'
p7093
S'Go Fish (1994)'
p7094
sS'1356'
p7095
S'Star Trek: First Contact (1996)'
p7096
sS'463'
p7097
S'Guilty as Sin (1993)'
p7098
sS'462'
p7099
S'Good Man in Africa, A (1994)'
p7100
sS'1273'
p7101
S'Down by Law (1986)'
p7102
sS'2158'
p7103
S'Henry: Portrait of a Serial Killer, Part 2 (1996)'
p7104
sS'2159'
p7105
S'Henry: Portrait of a Serial Killer (1990)'
p7106
sS'1519'
p7107
S'Broken English (1996)'
p7108
sS'1518'
p7109
S'Breakdown (1997)'
p7110
sS'1515'
p7111
S'Volcano (1997)'
p7112
sS'1514'
p7113
S'Temptress Moon (Feng Yue) (1996)'
p7114
sS'1517'
p7115
S'Austin Powers: International Man of Mystery (1997)'
p7116
sS'1516'
p7117
S'Children of the Revolution (1996)'
p7118
sS'1274'
p7119
S'Akira (1988)'
p7120
sS'1510'
p7121
S"Brother's Kiss, A (1997)"
p7122
sS'1513'
p7123
S"Romy and Michele's High School Reunion (1997)"
p7124
sS'3031'
p7125
S'Repossessed (1990)'
p7126
sS'3439'
p7127
S'Teenage Mutant Ninja Turtles II: The Secret of the Ooze (1991)'
p7128
sS'3395'
p7129
S'Nadine (1987)'
p7130
sS'1735'
p7131
S'Great Expectations (1998)'
p7132
sS'1275'
p7133
S'Highlander (1986)'
p7134
sS'3184'
p7135
S'Montana (1998)'
p7136
sS'3185'
p7137
S'Snow Falling on Cedars (1999)'
p7138
sS'3186'
p7139
S'Girl, Interrupted (1999)'
p7140
sS'3187'
p7141
S'Trans (1998)'
p7142
sS'3180'
p7143
S'Play it to the Bone (1999)'
p7144
sS'3181'
p7145
S'Titus (1999)'
p7146
sS'3182'
p7147
S'Mr. Death: The Rise and Fall of Fred A. Leuchter Jr. (1999)'
p7148
sS'3183'
p7149
S'Third Miracle, The (1999)'
p7150
sS'3188'
p7151
S'Life and Times of Hank Greenberg, The (1998)'
p7152
sS'3189'
p7153
S'My Dog Skip (1999)'
p7154
sS'3397'
p7155
S'Great Muppet Caper, The (1981)'
p7156
sS'3109'
p7157
S'River, The (1984)'
p7158
sS'3783'
p7159
S'Croupier (1998)'
p7160
sS'3396'
p7161
S'Muppet Movie, The (1979)'
p7162
sS'357'
p7163
S'Four Weddings and a Funeral (1994)'
p7164
sS'356'
p7165
S'Forrest Gump (1994)'
p7166
sS'355'
p7167
S'Flintstones, The (1994)'
p7168
sS'354'
p7169
S'Cobb (1994)'
p7170
sS'353'
p7171
S'Crow, The (1994)'
p7172
sS'352'
p7173
S'Crooklyn (1994)'
p7174
sS'351'
p7175
S'Corrina, Corrina (1994)'
p7176
sS'350'
p7177
S'Client, The (1994)'
p7178
sS'359'
p7179
S'I Like It Like That (1994)'
p7180
sS'358'
p7181
S'Higher Learning (1995)'
p7182
sS'3107'
p7183
S'Backdraft (1991)'
p7184
sS'3612'
p7185
S'Slipper and the Rose, The (1976)'
p7186
sS'3613'
p7187
S'Things Change (1988)'
p7188
sS'3614'
p7189
S'Honeymoon in Vegas (1992)'
p7190
sS'1033'
p7191
S'Fox and the Hound, The (1981)'
p7192
sS'2323'
p7193
S'Cruise, The (1998)'
p7194
sS'1447'
p7195
S"Gridlock'd (1997)"
p7196
sS'2321'
p7197
S'Pleasantville (1998)'
p7198
sS'2320'
p7199
S'Apt Pupil (1998)'
p7200
sS'2327'
p7201
S'Tales from the Darkside: The Movie (1990)'
p7202
sS'2326'
p7203
S'Shattered Image (1998)'
p7204
sS'2325'
p7205
S'Orgazmo (1997)'
p7206
sS'1446'
p7207
S'Kolya (1996)'
p7208
sS'2329'
p7209
S'American History X (1998)'
p7210
sS'2328'
p7211
S'Vampires (1998)'
p7212
sS'1445'
p7213
S"McHale's Navy (1997)"
p7214
sS'289'
p7215
S'Only You (1994)'
p7216
sS'288'
p7217
S'Natural Born Killers (1994)'
p7218
sS'1444'
p7219
S'Guantanamera (1994)'
p7220
sS'2830'
p7221
S'Cabaret Balkan (Bure Baruta) (1998)'
p7222
sS'3619'
p7223
S'Hollywood Knights, The (1980)'
p7224
sS'281'
p7225
S"Nobody's Fool (1994)"
p7226
sS'280'
p7227
S'Murder in the First (1995)'
p7228
sS'283'
p7229
S'New Jersey Drive (1995)'
p7230
sS'282'
p7231
S'Nell (1994)'
p7232
sS'285'
p7233
S'Beyond Bedlam (1993)'
p7234
sS'284'
p7235
S'New York Cop (1996)'
p7236
sS'287'
p7237
S'Nina Takes a Lover (1994)'
p7238
sS'286'
p7239
S'Nemesis 2: Nebula (1995)'
p7240
sS'3760'
p7241
S'Kentucky Fried Movie, The (1977)'
p7242
sS'3761'
p7243
S'Blood In, Blood Out (a.k.a. Bound by Honor) (1993)'
p7244
sS'3762'
p7245
S'Daughter of Dr. Jeckyll (1957)'
p7246
sS'3763'
p7247
S'F/X (1986)'
p7248
sS'3764'
p7249
S'F/X 2 (1992)'
p7250
sS'1441'
p7251
S'Benny & Joon (1993)'
p7252
sS'3766'
p7253
S'Missing in Action (1984)'
p7254
sS'3767'
p7255
S'Missing in Action 2: The Beginning (1985)'
p7256
sS'3768'
p7257
S'Braddock: Missing in Action III (1988)'
p7258
sS'3769'
p7259
S'Thunderbolt and Lightfoot (1974)'
p7260
sS'1116'
p7261
S'Single Girl, A (La Fille Seule) (1995)'
p7262
sS'263'
p7263
S'Ladybird Ladybird (1994)'
p7264
sS'262'
p7265
S'Little Princess, A (1995)'
p7266
sS'261'
p7267
S'Little Women (1994)'
p7268
sS'260'
p7269
S'Star Wars: Episode IV - A New Hope (1977)'
p7270
sS'267'
p7271
S'Major Payne (1994)'
p7272
sS'266'
p7273
S'Legends of the Fall (1994)'
p7274
sS'265'
p7275
S'Like Water for Chocolate (Como agua para chocolate) (1992)'
p7276
sS'264'
p7277
S"Enfer, L' (1994)"
p7278
sS'269'
p7279
S'My Crazy Life (Mi vida loca) (1993)'
p7280
sS'268'
p7281
S'Little Odessa (1994)'
p7282
sS'1562'
p7283
S'Batman & Robin (1997)'
p7284
sS'2499'
p7285
S"God Said 'Ha!' (1998)"
p7286
sS'2498'
p7287
S'My Favorite Martian (1999)'
p7288
sS'1563'
p7289
S'Dream With the Fishes (1997)'
p7290
sS'1980'
p7291
S'Friday the 13th Part VII: The New Blood (1988)'
p7292
sS'2491'
p7293
S'Simply Irresistible (1999)'
p7294
sS'1564'
p7295
S"Roseanna's Grave (For Roseanna) (1997)"
p7296
sS'2493'
p7297
S'Harmonists, The (1997)'
p7298
sS'2492'
p7299
S'20 Dates (1998)'
p7300
sS'2495'
p7301
S'Fantastic Planet, The (La Plan\xe8te sauvage) (1973)'
p7302
sS'2192'
p7303
S'See the Sea (Regarde la mer) (1997)'
p7304
sS'2497'
p7305
S'Message in a Bottle (1999)'
p7306
sS'1565'
p7307
S'Head Above Water (1996)'
p7308
sS'2193'
p7309
S'Willow (1988)'
p7310
sS'1566'
p7311
S'Hercules (1997)'
p7312
sS'2259'
p7313
S'Blame It on Rio (1984)'
p7314
sS'2258'
p7315
S'Master Ninja I (1984)'
p7316
sS'2257'
p7317
S'No Small Affair (1984)'
p7318
sS'2256'
p7319
S'Parasite (1982)'
p7320
sS'2255'
p7321
S'Young Doctors in Love (1982)'
p7322
sS'1567'
p7323
S'Last Time I Committed Suicide, The (1997)'
p7324
sS'2253'
p7325
S'Toys (1992)'
p7326
sS'2252'
p7327
S'Hero (1992)'
p7328
sS'2251'
p7329
S'Cabinet of Dr. Ramirez, The (1991)'
p7330
sS'2250'
p7331
S"Men Don't Leave (1990)"
p7332
sS'2477'
p7333
S'Firewalker (1986)'
p7334
sS'2476'
p7335
S'Heartbreak Ridge (1986)'
p7336
sS'988'
p7337
S'Grace of My Heart (1996)'
p7338
sS'989'
p7339
S'Schlafes Bruder (Brother of Sleep) (1995)'
p7340
sS'2473'
p7341
S'Soul Man (1986)'
p7342
sS'2472'
p7343
S'Tough Guys (1986)'
p7344
sS'2471'
p7345
S'Crocodile Dundee II (1988)'
p7346
sS'2470'
p7347
S'Crocodile Dundee (1986)'
p7348
sS'982'
p7349
S'Picnic (1955)'
p7350
sS'983'
p7351
S'Madagascar Skin (1995)'
p7352
sS'980'
p7353
S'In the Line of Duty 2 (1987)'
p7354
sS'981'
p7355
S'Dangerous Ground (1997)'
p7356
sS'986'
p7357
S'Fly Away Home (1996)'
p7358
sS'987'
p7359
S'Bliss (1997)'
p7360
sS'984'
p7361
S'Pompatus of Love, The (1996)'
p7362
sS'985'
p7363
S'Small Wonders (1996)'
p7364
sS'115'
p7365
S'Happiness Is in the Field (1995)'
p7366
sS'114'
p7367
S"Margaret's Museum (1995)"
p7368
sS'117'
p7369
S"Young Poisoner's Handbook, The (1995)"
p7370
sS'116'
p7371
S'Anne Frank Remembered (1995)'
p7372
sS'111'
p7373
S'Taxi Driver (1976)'
p7374
sS'110'
p7375
S'Braveheart (1995)'
p7376
sS'113'
p7377
S'Before and After (1996)'
p7378
sS'112'
p7379
S'Rumble in the Bronx (1995)'
p7380
sS'119'
p7381
S'Steal Big, Steal Little (1995)'
p7382
sS'118'
p7383
S'If Lucy Fell (1996)'
p7384
sS'3432'
p7385
S'Death Wish 3 (1985)'
p7386
sS'2785'
p7387
S'Tales of Terror (1962)'
p7388
sS'2784'
p7389
S'Masque of the Red Death, The (1964)'
p7390
sS'2787'
p7391
S"Cat's Eye (1985)"
p7392
sS'2786'
p7393
S'Haunted Honeymoon (1986)'
p7394
sS'2781'
p7395
S'Tingler, The (1959)'
p7396
sS'2780'
p7397
S'Raven, The (1963)'
p7398
sS'2783'
p7399
S'Tomb of Ligeia, The (1965)'
p7400
sS'2782'
p7401
S'Pit and the Pendulum (1961)'
p7402
sS'2789'
p7403
S'Damien: Omen II (1978)'
p7404
sS'2788'
p7405
S'And Now for Something Completely Different (1971)'
p7406
sS'1797'
p7407
S'Everest (1998)'
p7408
sS'2079'
p7409
S'Kidnapped (1960)'
p7410
sS'2078'
p7411
S'Jungle Book, The (1967)'
p7412
sS'2073'
p7413
S'Fandango (1985)'
p7414
sS'2072'
p7415
S"'burbs, The (1989)"
p7416
sS'2071'
p7417
S'And the Band Played On (1993)'
p7418
sS'2070'
p7419
S'Tender Mercies (1983)'
p7420
sS'2077'
p7421
S'Journey of Natty Gann, The (1985)'
p7422
sS'2076'
p7423
S'Blue Velvet (1986)'
p7424
sS'2075'
p7425
S'Mephisto (1981)'
p7426
sS'2074'
p7427
S'Night Porter, The (Il Portiere di notte) (1974)'
p7428
sS'1796'
p7429
S"In God's Hands (1998)"
p7430
sS'1035'
p7431
S'Sound of Music, The (1965)'
p7432
sS'3221'
p7433
S"Draughtsman's Contract, The (1982)"
p7434
sS'3508'
p7435
S'Outlaw Josey Wales, The (1976)'
p7436
sS'3509'
p7437
S'Black and White (1999)'
p7438
sS'3500'
p7439
S'Mr. Saturday Night (1992)'
p7440
sS'3501'
p7441
S"Murphy's Romance (1985)"
p7442
sS'3502'
p7443
S'My Life (1993)'
p7444
sS'3503'
p7445
S'Solaris (Solyaris) (1972)'
p7446
sS'3504'
p7447
S'Network (1976)'
p7448
sS'3505'
p7449
S'No Way Out (1987)'
p7450
sS'3506'
p7451
S'North Dallas Forty (1979)'
p7452
sS'3507'
p7453
S'Odd Couple, The (1968)'
p7454
sS'2671'
p7455
S'Notting Hill (1999)'
p7456
sS'2670'
p7457
S'Run Silent, Run Deep (1958)'
p7458
sS'2673'
p7459
S'Eternity and a Day (Mia eoniotita ke mia mera ) (1998)'
p7460
sS'2672'
p7461
S'Thirteenth Floor, The (1999)'
p7462
sS'2675'
p7463
S'Twice Upon a Yesterday (1998)'
p7464
sS'2674'
p7465
S'Loss of Sexual Innocence, The (1999)'
p7466
sS'2677'
p7467
S'Buena Vista Social Club (1999)'
p7468
sS'2676'
p7469
S'Instinct (1999)'
p7470
sS'2679'
p7471
S'Finding North (1999)'
p7472
sS'2678'
p7473
S'Desert Blue (1999)'
p7474
sS'3220'
p7475
S'Night Tide (1961)'
p7476
sS'2929'
p7477
S'Reds (1981)'
p7478
sS'2928'
p7479
S"Razor's Edge, The (1984)"
p7480
sS'2921'
p7481
S'High Plains Drifter (1972)'
p7482
sS'2920'
p7483
S'Children of Paradise (Les enfants du paradis) (1945)'
p7484
sS'2923'
p7485
S"Citizen's Band (a.k.a. Handle with Care) (1977)"
p7486
sS'2922'
p7487
S"Hang 'em High (1967)"
p7488
sS'2925'
p7489
S'Conformist, The (Il Conformista) (1970)'
p7490
sS'2924'
p7491
S'Drunken Master (Zui quan) (1979)'
p7492
sS'2927'
p7493
S'Brief Encounter (1946)'
p7494
sS'2926'
p7495
S'Hairspray (1988)'
p7496
sS'3394'
p7497
S'Blind Date (1987)'
p7498
sS'2907'
p7499
S'Superstar (1999)'
p7500
sS'2906'
p7501
S'Random Hearts (1999)'
p7502
sS'1630'
p7503
S'Lay of the Land, The (1997)'
p7504
sS'1631'
p7505
S'Assignment, The (1997)'
p7506
sS'1632'
p7507
S'Smile Like Yours, A (1997)'
p7508
sS'484'
p7509
S'Lassie (1994)'
p7510
sS'1982'
p7511
S'Halloween (1978)'
p7512
sS'1635'
p7513
S'Ice Storm, The (1997)'
p7514
sS'1636'
p7515
S'Stag (1997)'
p7516
sS'1981'
p7517
S'Friday the 13th Part VIII: Jason Takes Manhattan (1989)'
p7518
sS'1639'
p7519
S'Chasing Amy (1997)'
p7520
sS'3218'
p7521
S'Poison (1991)'
p7522
sS'3219'
p7523
S'Pacific Heights (1990)'
p7524
sS'1988'
p7525
S'Hello Mary Lou: Prom Night II (1987)'
p7526
sS'1989'
p7527
S'Prom Night III: The Last Kiss (1989)'
p7528
sS'3222'
p7529
S'Carmen (1984)'
p7530
sS'2909'
p7531
S'Five Wives, Three Secretaries and Me (1998)'
p7532
sS'568'
p7533
S'Bhaji on the Beach (1993)'
p7534
sS'569'
p7535
S'Little Big League (1994)'
p7536
sS'2817'
p7537
S'Aces: Iron Eagle III (1992)'
p7538
sS'2816'
p7539
S'Iron Eagle II (1988)'
p7540
sS'2811'
p7541
S'With Friends Like These... (1998)'
p7542
sS'2810'
p7543
S'Perfect Blue (1997)'
p7544
sS'2813'
p7545
S'Source, The (1999)'
p7546
sS'2812'
p7547
S'In Too Deep (1999)'
p7548
sS'560'
p7549
S'Beans of Egypt, Maine, The (1994)'
p7550
sS'561'
p7551
S'Killer (Bulletproof Heart) (1994)'
p7552
sS'562'
p7553
S'Welcome to the Dollhouse (1995)'
p7554
sS'563'
p7555
S'Germinal (1993)'
p7556
sS'564'
p7557
S'Chasers (1994)'
p7558
sS'565'
p7559
S'Cronos (1992)'
p7560
sS'566'
p7561
S'Naked in New York (1994)'
p7562
sS'567'
p7563
S'Kika (1993)'
p7564
sS'3179'
p7565
S"Angela's Ashes (1999)"
p7566
sS'3178'
p7567
S'Hurricane, The (1999)'
p7568
sS'3171'
p7569
S'Room at the Top (1959)'
p7570
sS'3170'
p7571
S'Hi-Yo Silver (1940)'
p7572
sS'3173'
p7573
S'Any Given Sunday (1999)'
p7574
sS'3172'
p7575
S'Ulysses (Ulisse) (1954)'
p7576
sS'3175'
p7577
S'Galaxy Quest (1999)'
p7578
sS'3174'
p7579
S'Man on the Moon (1999)'
p7580
sS'3177'
p7581
S'Next Friday (1999)'
p7582
sS'3176'
p7583
S'Talented Mr. Ripley, The (1999)'
p7584
sS'1188'
p7585
S'Strictly Ballroom (1992)'
p7586
sS'1189'
p7587
S'Thin Blue Line, The (1988)'
p7588
sS'1186'
p7589
S'Sex, Lies, and Videotape (1989)'
p7590
sS'1187'
p7591
S'Passion Fish (1992)'
p7592
sS'1184'
p7593
S'Mediterraneo (1991)'
p7594
sS'1185'
p7595
S'My Left Foot (1989)'
p7596
sS'3373'
p7597
S'Buck and the Preacher (1972)'
p7598
sS'1183'
p7599
S'English Patient, The (1996)'
p7600
sS'1180'
p7601
S'Hear My Song (1991)'
p7602
sS'1181'
p7603
S'Shooter, The (1995)'
p7604
sS'726'
p7605
S'Last Dance (1996)'
p7606
sS'727'
p7607
S'War Stories (1995)'
p7608
sS'724'
p7609
S'Craft, The (1996)'
p7610
sS'725'
p7611
S'Great White Hype, The (1996)'
p7612
sS'722'
p7613
S'Haunted World of Edward D. Wood Jr., The (1995)'
p7614
sS'723'
p7615
S'Two Friends (1986)'
p7616
sS'720'
p7617
S'Wallace & Gromit: The Best of Aardman Animation (1996)'
p7618
sS'721'
p7619
S'Halfmoon (Paul Bowles - Halbmond) (1995)'
p7620
sS'1744'
p7621
S'Firestorm (1998)'
p7622
sS'1746'
p7623
S'Senseless (1998)'
p7624
sS'1747'
p7625
S'Wag the Dog (1997)'
p7626
sS'1740'
p7627
S'Men of Means (1998)'
p7628
sS'1741'
p7629
S'Midaq Alley (Callej\xf3n de los milagros, El) (1995)'
p7630
sS'728'
p7631
S'Cold Comfort Farm (1995)'
p7632
sS'729'
p7633
S'Institute Benjamenta, or This Dream People Call Human Life (1995)'
p7634
sS'1164'
p7635
S'Two or Three Things I Know About Her (1966)'
p7636
sS'1165'
p7637
S'Bloody Child, The (1996)'
p7638
sS'1166'
p7639
S'Farmer & Chase (1995)'
p7640
sS'1167'
p7641
S'Dear God (1996)'
p7642
sS'1160'
p7643
S'Six of a Kind (1934)'
p7644
sS'1161'
p7645
S'Tin Drum, The (Blechtrommel, Die) (1979)'
p7646
sS'1162'
p7647
S'Ruling Class, The (1972)'
p7648
sS'1163'
p7649
S'Mina Tannenbaum (1994)'
p7650
sS'3309'
p7651
S"Dog's Life, A (1920)"
p7652
sS'1168'
p7653
S'Bad Moon (1996)'
p7654
sS'1169'
p7655
S'American Dream (1990)'
p7656
sS'3092'
p7657
S'Chushingura (1962)'
p7658
sS'3304'
p7659
S'Blue Collar (1978)'
p7660
sS'472'
p7661
S"I'll Do Anything (1994)"
p7662
sS'2913'
p7663
S'Mating Habits of the Earthbound Human, The (1998)'
p7664
sS'3305'
p7665
S'Bluebeard (1944)'
p7666
sS'48'
p7667
S'Pocahontas (1995)'
p7668
sS'49'
p7669
S'When Night Is Falling (1995)'
p7670
sS'46'
p7671
S'How to Make an American Quilt (1995)'
p7672
sS'47'
p7673
S'Seven (Se7en) (1995)'
p7674
sS'44'
p7675
S'Mortal Kombat (1995)'
p7676
sS'45'
p7677
S'To Die For (1995)'
p7678
sS'42'
p7679
S'Dead Presidents (1995)'
p7680
sS'43'
p7681
S'Restoration (1995)'
p7682
sS'40'
p7683
S'Cry, the Beloved Country (1995)'
p7684
sS'41'
p7685
S'Richard III (1995)'
p7686
sS'1568'
p7687
S'MURDER and murder (1996)'
p7688
sS'1569'
p7689
S"My Best Friend's Wedding (1997)"
p7690
sS'1298'
p7691
S'Pink Floyd - The Wall (1982)'
p7692
sS'1299'
p7693
S'Killing Fields, The (1984)'
p7694
sS'3226'
p7695
S'Hellhounds on My Trail (1999)'
p7696
sS'1292'
p7697
S'Being There (1979)'
p7698
sS'1293'
p7699
S'Gandhi (1982)'
p7700
sS'1290'
p7701
S'Some Kind of Wonderful (1987)'
p7702
sS'1291'
p7703
S'Indiana Jones and the Last Crusade (1989)'
p7704
sS'1296'
p7705
S'Room with a View, A (1986)'
p7706
sS'1297'
p7707
S'Real Genius (1985)'
p7708
sS'1294'
p7709
S'M*A*S*H (1970)'
p7710
sS'1295'
p7711
S'Unbearable Lightness of Being, The (1988)'
p7712
sS'1713'
p7713
S'Mouse Hunt (1997)'
p7714
sS'474'
p7715
S'In the Line of Fire (1993)'
p7716
sS'475'
p7717
S'In the Name of the Father (1993)'
p7718
sS'1711'
p7719
S'Midnight in the Garden of Good and Evil (1997)'
p7720
sS'2425'
p7721
S'General, The (1998)'
p7722
sS'3747'
p7723
S"Jesus' Son (1999)"
p7724
sS'1710'
p7725
S'Man of Her Dreams (1996)'
p7726
sS'1717'
p7727
S'Scream 2 (1997)'
p7728
sS'1716'
p7729
S'Other Voices, Other Rooms (1997)'
p7730
sS'1715'
p7731
S'Office Killer (1997)'
p7732
sS'1201'
p7733
S'Good, The Bad and The Ugly, The (1966)'
p7734
sS'1714'
p7735
S'Never Met Picasso (1996)'
p7736
sS'1366'
p7737
S'Crucible, The (1996)'
p7738
sS'1367'
p7739
S'101 Dalmatians (1996)'
p7740
sS'1364'
p7741
S'Zero Kelvin (Kj\xe6rlighetens kj\xf8tere) (1995)'
p7742
sS'1365'
p7743
S'Ridicule (1996)'
p7744
sS'1362'
p7745
S'Garden of Finzi-Contini, The (Giardino dei Finzi-Contini, Il) (1970)'
p7746
sS'1363'
p7747
S"Preacher's Wife, The (1996)"
p7748
sS'1360'
p7749
S'Identification of a Woman (Identificazione di una donna) (1982)'
p7750
sS'1361'
p7751
S'Paradise Lost: The Child Murders at Robin Hood Hills (1996)'
p7752
sS'3728'
p7753
S'One False Move (1991)'
p7754
sS'478'
p7755
S'Jimmy Hollywood (1994)'
p7756
sS'479'
p7757
S'Judgment Night (1993)'
p7758
sS'2916'
p7759
S'Total Recall (1990)'
p7760
sS'3699'
p7761
S'Starman (1984)'
p7762
sS'1368'
p7763
S'Forbidden Christ, The (Cristo proibito, Il) (1950)'
p7764
sS'1369'
p7765
S"I Can't Sleep (J'ai pas sommeil) (1994)"
p7766
s.